###############################################################################
#                                                                             #
# IAR C/C++ Compiler V8.10.3.10338/W32 for 8051         24/Sep/2017  22:24:57 #
# Copyright 2004-2011 IAR Systems AB.                                         #
#                                                                             #
#    Core               =  plain                                              #
#    Code model         =  banked                                             #
#    Data model         =  large                                              #
#    Calling convention =  xdata reentrant                                    #
#    Constant location  =  data_rom                                           #
#    Dptr setup         =  1,16                                               #
#    Source file        =  C:\Users\li\Desktop\ZStack-2.5.1a -                #
#                          副本\Projects\zstack\Samples\SampleApp\Source\Samp #
#                          leApp.c                                            #
#    Command line       =  -f "C:\Users\li\Desktop\ZStack-2.5.1a -            #
#                          副本\Projects\zstack\Samples\SampleApp\CC2530DB\.. #
#                          \..\..\Tools\CC2530DB\f8wCoord.cfg" (-DCPU32MHZ    #
#                          -DROOT=__near_func -DMAC_CFG_APP_PENDING_QUEUE=TRU #
#                          E -DMAC_CFG_TX_DATA_MAX=5 -DMAC_CFG_TX_MAX=8       #
#                          -DMAC_CFG_RX_MAX=5 -DZDO_COORDINATOR -DRTR_NWK)    #
#                          -f "C:\Users\li\Desktop\ZStack-2.5.1a -            #
#                          副本\Projects\zstack\Samples\SampleApp\CC2530DB\.. #
#                          \..\..\Tools\CC2530DB\f8wConfig.cfg" (-DZIGBEEPRO  #
#                          -DSECURE=0 -DZG_SECURE_DYNAMIC=0 -DREFLECTOR       #
#                          -DDEFAULT_CHANLIST=0x00000800                      #
#                          -DZDAPP_CONFIG_PAN_ID=0xFFFF                       #
#                          -DNWK_START_DELAY=100 -DEXTENDED_JOINING_RANDOM_MA #
#                          SK=0x007F -DBEACON_REQUEST_DELAY=100               #
#                          -DBEACON_REQ_DELAY_MASK=0x00FF                     #
#                          -DLINK_STATUS_JITTER_MASK=0x007F                   #
#                          -DROUTE_EXPIRY_TIME=30 -DAPSC_ACK_WAIT_DURATION_PO #
#                          LLED=3000 -DNWK_INDIRECT_MSG_TIMEOUT=7             #
#                          -DMAX_RREQ_ENTRIES=8 -DAPSC_MAX_FRAME_RETRIES=3    #
#                          -DNWK_MAX_DATA_RETRIES=2                           #
#                          -DMAX_POLL_FAILURE_RETRIES=2 -DMAX_BCAST=9         #
#                          -DAPS_MAX_GROUPS=16 -DMAX_RTG_ENTRIES=40           #
#                          -DNWK_MAX_BINDING_ENTRIES=4                        #
#                          -DMAX_BINDING_CLUSTER_IDS=4 "-DDEFAULT_KEY={0x01,  #
#                          0x03, 0x05, 0x07, 0x09, 0x0B, 0x0D, 0x0F, 0x00,    #
#                          0x02, 0x04, 0x06, 0x08, 0x0A, 0x0C, 0x0D}"         #
#                          -DMAC_MAX_FRAME_SIZE=116                           #
#                          -DZDNWKMGR_MIN_TRANSMISSIONS=20 "-DCONST=const     #
#                          __code" -DGENERIC=__generic                        #
#                          -DRFD_RCVC_ALWAYS_ON=FALSE -DPOLL_RATE=1000        #
#                          -DQUEUED_POLL_RATE=100 -DRESPONSE_POLL_RATE=100)   #
#                          -DREJOIN_POLL_RATE=440 "C:\Users\li\Desktop\ZStack #
#                          -2.5.1a - 副本\Projects\zstack\Samples\SampleApp\S #
#                          ource\SampleApp.c" -D ZTOOL_P1 -D MT_TASK -D       #
#                          MT_SYS_FUNC -D MT_ZDO_FUNC -D LCD_SUPPORTED=DEBUG  #
#                          -lC "C:\Users\li\Desktop\ZStack-2.5.1a -           #
#                          副本\Projects\zstack\Samples\SampleApp\CC2530DB\Co #
#                          ordinatorEB\List\" -lA "C:\Users\li\Desktop\ZStack #
#                          -2.5.1a - 副本\Projects\zstack\Samples\SampleApp\C #
#                          C2530DB\CoordinatorEB\List\" --diag_suppress       #
#                          Pe001,Pa010 -o "C:\Users\li\Desktop\ZStack-2.5.1a  #
#                          - 副本\Projects\zstack\Samples\SampleApp\CC2530DB\ #
#                          CoordinatorEB\Obj\" -e --no_code_motion --debug    #
#                          --core=plain --dptr=16,1 --data_model=large        #
#                          --code_model=banked --calling_convention=xdata_ree #
#                          ntrant --place_constants=data_rom                  #
#                          --nr_virtual_regs 16 -I "C:\Users\li\Desktop\ZStac #
#                          k-2.5.1a - 副本\Projects\zstack\Samples\SampleApp\ #
#                          CC2530DB\" -I "C:\Users\li\Desktop\ZStack-2.5.1a   #
#                          - 副本\Projects\zstack\Samples\SampleApp\CC2530DB\ #
#                          ..\Source\" -I "C:\Users\li\Desktop\ZStack-2.5.1a  #
#                          - 副本\Projects\zstack\Samples\SampleApp\CC2530DB\ #
#                          ..\..\..\ZMain\TI2530DB\" -I                       #
#                          "C:\Users\li\Desktop\ZStack-2.5.1a -               #
#                          副本\Projects\zstack\Samples\SampleApp\CC2530DB\.. #
#                          \..\..\..\..\Components\hal\include\" -I           #
#                          "C:\Users\li\Desktop\ZStack-2.5.1a -               #
#                          副本\Projects\zstack\Samples\SampleApp\CC2530DB\.. #
#                          \..\..\..\..\Components\hal\target\CC2530EB\" -I   #
#                          "C:\Users\li\Desktop\ZStack-2.5.1a -               #
#                          副本\Projects\zstack\Samples\SampleApp\CC2530DB\.. #
#                          \..\..\..\..\Components\mac\include\" -I           #
#                          "C:\Users\li\Desktop\ZStack-2.5.1a -               #
#                          副本\Projects\zstack\Samples\SampleApp\CC2530DB\.. #
#                          \..\..\..\..\Components\mac\high_level\" -I        #
#                          "C:\Users\li\Desktop\ZStack-2.5.1a -               #
#                          副本\Projects\zstack\Samples\SampleApp\CC2530DB\.. #
#                          \..\..\..\..\Components\mac\low_level\srf04\" -I   #
#                          "C:\Users\li\Desktop\ZStack-2.5.1a -               #
#                          副本\Projects\zstack\Samples\SampleApp\CC2530DB\.. #
#                          \..\..\..\..\Components\mac\low_level\srf04\single #
#                          _chip\" -I "C:\Users\li\Desktop\ZStack-2.5.1a -    #
#                          副本\Projects\zstack\Samples\SampleApp\CC2530DB\.. #
#                          \..\..\..\..\Components\mt\" -I                    #
#                          "C:\Users\li\Desktop\ZStack-2.5.1a -               #
#                          副本\Projects\zstack\Samples\SampleApp\CC2530DB\.. #
#                          \..\..\..\..\Components\osal\include\" -I          #
#                          "C:\Users\li\Desktop\ZStack-2.5.1a -               #
#                          副本\Projects\zstack\Samples\SampleApp\CC2530DB\.. #
#                          \..\..\..\..\Components\services\saddr\" -I        #
#                          "C:\Users\li\Desktop\ZStack-2.5.1a -               #
#                          副本\Projects\zstack\Samples\SampleApp\CC2530DB\.. #
#                          \..\..\..\..\Components\services\sdata\" -I        #
#                          "C:\Users\li\Desktop\ZStack-2.5.1a -               #
#                          副本\Projects\zstack\Samples\SampleApp\CC2530DB\.. #
#                          \..\..\..\..\Components\stack\af\" -I              #
#                          "C:\Users\li\Desktop\ZStack-2.5.1a -               #
#                          副本\Projects\zstack\Samples\SampleApp\CC2530DB\.. #
#                          \..\..\..\..\Components\stack\nwk\" -I             #
#                          "C:\Users\li\Desktop\ZStack-2.5.1a -               #
#                          副本\Projects\zstack\Samples\SampleApp\CC2530DB\.. #
#                          \..\..\..\..\Components\stack\sapi\" -I            #
#                          "C:\Users\li\Desktop\ZStack-2.5.1a -               #
#                          副本\Projects\zstack\Samples\SampleApp\CC2530DB\.. #
#                          \..\..\..\..\Components\stack\sec\" -I             #
#                          "C:\Users\li\Desktop\ZStack-2.5.1a -               #
#                          副本\Projects\zstack\Samples\SampleApp\CC2530DB\.. #
#                          \..\..\..\..\Components\stack\sys\" -I             #
#                          "C:\Users\li\Desktop\ZStack-2.5.1a -               #
#                          副本\Projects\zstack\Samples\SampleApp\CC2530DB\.. #
#                          \..\..\..\..\Components\stack\zdo\" -I             #
#                          "C:\Users\li\Desktop\ZStack-2.5.1a -               #
#                          副本\Projects\zstack\Samples\SampleApp\CC2530DB\.. #
#                          \..\..\..\..\Components\zmac\" -I                  #
#                          "C:\Users\li\Desktop\ZStack-2.5.1a -               #
#                          副本\Projects\zstack\Samples\SampleApp\CC2530DB\.. #
#                          \..\..\..\..\Components\zmac\f8w\" -Ohz            #
#                          --require_prototypes                               #
#    List file          =  C:\Users\li\Desktop\ZStack-2.5.1a -                #
#                          副本\Projects\zstack\Samples\SampleApp\CC2530DB\Co #
#                          ordinatorEB\List\SampleApp.lst                     #
#    Object file        =  C:\Users\li\Desktop\ZStack-2.5.1a -                #
#                          副本\Projects\zstack\Samples\SampleApp\CC2530DB\Co #
#                          ordinatorEB\Obj\SampleApp.r51                      #
#                                                                             #
#                                                                             #
###############################################################################

C:\Users\li\Desktop\ZStack-2.5.1a - 副本\Projects\zstack\Samples\SampleApp\Source\SampleApp.c
      1          /**************************************************************************************************
      2            Filename:       SampleApp.c
      3            Revised:        $Date: 2009-03-18 15:56:27 -0700 (Wed, 18 Mar 2009) $
      4            Revision:       $Revision: 19453 $
      5          
      6            Description:    Sample Application (no Profile).
      7          
      8          
      9            Copyright 2007 Texas Instruments Incorporated. All rights reserved.
     10          
     11            IMPORTANT: Your use of this Software is limited to those specific rights
     12            granted under the terms of a software license agreement between the user
     13            who downloaded the software, his/her employer (which must be your employer)
     14            and Texas Instruments Incorporated (the "License").  You may not use this
     15            Software unless you agree to abide by the terms of the License. The License
     16            limits your use, and you acknowledge, that the Software may not be modified,
     17            copied or distributed unless embedded on a Texas Instruments microcontroller
     18            or used solely and exclusively in conjunction with a Texas Instruments radio
     19            frequency transceiver, which is integrated into your product.  Other than for
     20            the foregoing purpose, you may not use, reproduce, copy, prepare derivative
     21            works of, modify, distribute, perform, display or sell this Software and/or
     22            its documentation for any purpose.
     23          
     24            YOU FURTHER ACKNOWLEDGE AND AGREE THAT THE SOFTWARE AND DOCUMENTATION ARE
     25            PROVIDED AS IS?WITHOUT WARRANTY OF ANY KIND, EITHER EXPRESS OR IMPLIED,
     26            INCLUDING WITHOUT LIMITATION, ANY WARRANTY OF MERCHANTABILITY, TITLE,
     27            NON-INFRINGEMENT AND FITNESS FOR A PARTICULAR PURPOSE. IN NO EVENT SHALL
     28            TEXAS INSTRUMENTS OR ITS LICENSORS BE LIABLE OR OBLIGATED UNDER CONTRACT,
     29            NEGLIGENCE, STRICT LIABILITY, CONTRIBUTION, BREACH OF WARRANTY, OR OTHER
     30            LEGAL EQUITABLE THEORY ANY DIRECT OR INDIRECT DAMAGES OR EXPENSES
     31            INCLUDING BUT NOT LIMITED TO ANY INCIDENTAL, SPECIAL, INDIRECT, PUNITIVE
     32            OR CONSEQUENTIAL DAMAGES, LOST PROFITS OR LOST DATA, COST OF PROCUREMENT
     33            OF SUBSTITUTE GOODS, TECHNOLOGY, SERVICES, OR ANY CLAIMS BY THIRD PARTIES
     34            (INCLUDING BUT NOT LIMITED TO ANY DEFENSE THEREOF), OR OTHER SIMILAR COSTS.
     35          
     36            Should you have any questions regarding your right to use this Software,
     37            contact Texas Instruments Incorporated at www.TI.com.
     38          **************************************************************************************************/
     39          
     40          /*********************************************************************
     41            This application isn't intended to do anything useful, it is
     42            intended to be a simple example of an application's structure.
     43          
     44            This application sends it's messages either as broadcast or
     45            broadcast filtered group messages.  The other (more normal)
     46            message addressing is unicast.  Most of the other sample
     47            applications are written to support the unicast message model.
     48          
     49            Key control:
     50              SW1:  Sends a flash command to all devices in Group 1.
     51              SW2:  Adds/Removes (toggles) this device in and out
     52                    of Group 1.  This will enable and disable the
     53                    reception of the flash command.
     54          *********************************************************************/
     55          
     56          /*********************************************************************
     57           * INCLUDES
     58           */
     59          #include "OSAL.h"
     60          #include "ZGlobals.h"
     61          #include "AF.h"
     62          #include "aps_groups.h"
     63          #include "ZDApp.h"
     64          
     65          #include "SampleApp.h"
     66          #include "SampleAppHw.h"
     67          
     68          #include "OnBoard.h"

   \                                 In  segment SFR_AN, at 0x9e
   \   unsigned char volatile __sfr CLKCONSTA
   \                     CLKCONSTA:
   \   000000                DS 1

   \                                 In  segment SFR_AN, at 0xa8
   \   union <unnamed> volatile __sfr _A_IEN0
   \                     _A_IEN0:
   \   000000                DS 1

   \                                 In  segment SFR_AN, at 0xb8
   \   union <unnamed> volatile __sfr _A_IEN1
   \                     _A_IEN1:
   \   000000                DS 1

   \                                 In  segment SFR_AN, at 0xc0
   \   union <unnamed> volatile __sfr _A_IRCON
   \                     _A_IRCON:
   \   000000                DS 1

   \                                 In  segment SFR_AN, at 0xc6
   \   unsigned char volatile __sfr CLKCONCMD
   \                     CLKCONCMD:
   \   000000                DS 1

   \                                 In  segment SFR_AN, at 0xcb
   \   unsigned char volatile __sfr T3CTL
   \                     T3CTL:
   \   000000                DS 1

   \                                 In  segment SFR_AN, at 0xda
   \   unsigned char volatile __sfr T1CC0L
   \                     T1CC0L:
   \   000000                DS 1

   \                                 In  segment SFR_AN, at 0xdb
   \   unsigned char volatile __sfr T1CC0H
   \                     T1CC0H:
   \   000000                DS 1

   \                                 In  segment SFR_AN, at 0xe4
   \   unsigned char volatile __sfr T1CTL
   \                     T1CTL:
   \   000000                DS 1

   \                                 In  segment SFR_AN, at 0xf1
   \   unsigned char volatile __sfr PERCFG
   \                     PERCFG:
   \   000000                DS 1

   \                                 In  segment SFR_AN, at 0xf3
   \   unsigned char volatile __sfr P0SEL
   \                     P0SEL:
   \   000000                DS 1

   \                                 In  segment SFR_AN, at 0xf5
   \   unsigned char volatile __sfr P2SEL
   \                     P2SEL:
   \   000000                DS 1

   \                                 In  segment SFR_AN, at 0xfd
   \   unsigned char volatile __sfr P0DIR
   \                     P0DIR:
   \   000000                DS 1

   \                                 In  segment SFR_AN, at 0xff
   \   unsigned char volatile __sfr P2DIR
   \                     P2DIR:
   \   000000                DS 1
     69          
     70          /* HAL */
     71          #include "hal_lcd.h"
     72          #include "hal_led.h"
     73          #include "hal_key.h"
     74          #include "MT_UART.h"
     75          #include "MT_APP.h"
     76          #include "MT.h"
     77          #include "stdlib.h"
     78          
     79          /*********************************************************************
     80           * MACROS
     81           */
     82          
     83          /*********************************************************************
     84           * CONSTANTS
     85           */
     86          
     87          /*********************************************************************
     88           * TYPEDEFS
     89           */
     90          
     91          /*********************************************************************
     92           * GLOBAL VARIABLES
     93           */

   \                                 In  segment XDATA_I, align 1, keep-with-next
     94          uint8 AppTitle[] = "ALD2530 LED"; //应用程序名称
   \                     AppTitle:
   \   000000                DS 12
   \   00000C                REQUIRE `?<Initializer for AppTitle>`
   \   00000C                REQUIRE __INIT_XDATA_I
     95          
     96          // This list should be filled with Application specific Cluster IDs.

   \                                 In  segment XDATA_ROM_C, align 1
     97          const cId_t SampleApp_ClusterList[SAMPLEAPP_MAX_CLUSTERS] =
   \                     SampleApp_ClusterList:
   \   000000   0100         DW 1
   \   000002   0200         DW 2
   \   000004   0300         DW 3
     98          {
     99            SAMPLEAPP_PERIODIC_CLUSTERID,
    100            SAMPLEAPP_FLASH_CLUSTERID,
    101            SAMPLEAPP_SINGLE_CLUSTERID
    102          };
    103          

   \                                 In  segment XDATA_ROM_C, align 1
    104          const SimpleDescriptionFormat_t SampleApp_SimpleDesc =
   \                     SampleApp_SimpleDesc:
   \   000000   14           DB 20
   \   000001   080F         DW 3848
   \   000003   0100         DW 1
   \   000005   00           DB 0
   \   000006   03           DB 3
   \   000007   ....         DW SampleApp_ClusterList
   \   000009   03           DB 3
   \   00000A   ....         DW SampleApp_ClusterList
    105          {
    106            SAMPLEAPP_ENDPOINT,              //  int Endpoint;
    107            SAMPLEAPP_PROFID,                //  uint16 AppProfId[2];
    108            SAMPLEAPP_DEVICEID,              //  uint16 AppDeviceId[2];
    109            SAMPLEAPP_DEVICE_VERSION,        //  int   AppDevVer:4;
    110            SAMPLEAPP_FLAGS,                 //  int   AppFlags:4;
    111            SAMPLEAPP_MAX_CLUSTERS,          //  uint8  AppNumInClusters;
    112            (cId_t *)SampleApp_ClusterList,  //  uint8 *pAppInClusterList;
    113            SAMPLEAPP_MAX_CLUSTERS,          //  uint8  AppNumInClusters;
    114            (cId_t *)SampleApp_ClusterList   //  uint8 *pAppInClusterList;
    115          };
    116          
    117          // This is the Endpoint/Interface description.  It is defined here, but
    118          // filled-in in SampleApp_Init().  Another way to go would be to fill
    119          // in the structure here and make it a "const" (in code space).  The
    120          // way it's defined in this sample app it is define in RAM.

   \                                 In  segment XDATA_Z, align 1, keep-with-next
    121          endPointDesc_t SampleApp_epDesc;
   \                     SampleApp_epDesc:
   \   000000                DS 6
   \   000006                REQUIRE __INIT_XDATA_Z
    122          
    123          /*********************************************************************
    124           * EXTERNAL VARIABLES
    125           */
    126          
    127          /*********************************************************************
    128           * EXTERNAL FUNCTIONS
    129           */
    130          
    131          /*********************************************************************
    132           * LOCAL VARIABLES
    133           */

   \                                 In  segment XDATA_Z, align 1, keep-with-next
    134          uint8 SampleApp_TaskID;   // Task ID for internal task/event processing
   \                     SampleApp_TaskID:
   \   000000                DS 1
   \   000001                REQUIRE __INIT_XDATA_Z
    135                                    // This variable will be received when
    136                                    // SampleApp_Init() is called.

   \                                 In  segment XDATA_Z, align 1, keep-with-next
    137          devStates_t SampleApp_NwkState;
   \                     SampleApp_NwkState:
   \   000000                DS 1
   \   000001                REQUIRE __INIT_XDATA_Z
    138          

   \                                 In  segment XDATA_Z, align 1, keep-with-next
    139          uint8 SampleApp_TransID;  // This is the unique message ID (counter)
   \                     SampleApp_TransID:
   \   000000                DS 1
   \   000001                REQUIRE __INIT_XDATA_Z
    140          

   \                                 In  segment XDATA_Z, align 1, keep-with-next
    141          afAddrType_t SampleApp_Periodic_DstAddr;
   \                     SampleApp_Periodic_DstAddr:
   \   000000                DS 12
   \   00000C                REQUIRE __INIT_XDATA_Z

   \                                 In  segment XDATA_Z, align 1, keep-with-next
    142          afAddrType_t SampleApp_Single_DstAddr;
   \                     SampleApp_Single_DstAddr:
   \   000000                DS 12
   \   00000C                REQUIRE __INIT_XDATA_Z

   \                                 In  segment XDATA_Z, align 1, keep-with-next
    143          afAddrType_t SampleApp_Flash_DstAddr;
   \                     SampleApp_Flash_DstAddr:
   \   000000                DS 12
   \   00000C                REQUIRE __INIT_XDATA_Z
    144          

   \                                 In  segment XDATA_Z, align 1, keep-with-next
    145          aps_Group_t SampleApp_Group;
   \                     SampleApp_Group:
   \   000000                DS 18
   \   000012                REQUIRE __INIT_XDATA_Z
    146          

   \                                 In  segment XDATA_Z, align 1, keep-with-next
    147          uint8 SampleAppPeriodicCounter = 0;
   \                     SampleAppPeriodicCounter:
   \   000000                DS 1
   \   000001                REQUIRE __INIT_XDATA_Z

   \                                 In  segment XDATA_Z, align 1, keep-with-next
    148          uint8 SampleAppFlashCounter = 0;
   \                     SampleAppFlashCounter:
   \   000000                DS 1
   \   000001                REQUIRE __INIT_XDATA_Z
    149          

   \                                 In  segment XDATA_Z, align 1, keep-with-next
    150          uint16 device[32] = {0};
   \                     device:
   \   000000                DS 64
   \   000040                REQUIRE __INIT_XDATA_Z

   \                                 In  segment XDATA_Z, align 1, keep-with-next
    151          uint32 long_addr[32] = {0};
   \                     long_addr:
   \   000000                DS 128
   \   000080                REQUIRE __INIT_XDATA_Z

   \                                 In  segment XDATA_Z, align 1, keep-with-next
    152          uint8 online[32] = {0};
   \                     online:
   \   000000                DS 32
   \   000020                REQUIRE __INIT_XDATA_Z
    153          

   \                                 In  segment XDATA_Z, align 1, keep-with-next
    154          int sel_dev = 0;
   \                     sel_dev:
   \   000000                DS 2
   \   000002                REQUIRE __INIT_XDATA_Z

   \                                 In  segment XDATA_I, align 1, keep-with-next
    155          int main_flag = 1;
   \                     main_flag:
   \   000000                DS 2
   \   000002                REQUIRE `?<Initializer for main_flag>`
   \   000002                REQUIRE __INIT_XDATA_I

   \                                 In  segment XDATA_Z, align 1, keep-with-next
    156          int beep_flag = 0;
   \                     beep_flag:
   \   000000                DS 2
   \   000002                REQUIRE __INIT_XDATA_Z

   \                                 In  segment XDATA_Z, align 1, keep-with-next
    157          int time_flag = 0;
   \                     time_flag:
   \   000000                DS 2
   \   000002                REQUIRE __INIT_XDATA_Z

   \                                 In  segment XDATA_Z, align 1, keep-with-next
    158          int distance_flag = 0;
   \                     distance_flag:
   \   000000                DS 2
   \   000002                REQUIRE __INIT_XDATA_Z

   \                                 In  segment XDATA_Z, align 1, keep-with-next
    159          int count = 0;
   \                     count:
   \   000000                DS 2
   \   000002                REQUIRE __INIT_XDATA_Z

   \                                 In  segment XDATA_Z, align 1, keep-with-next
    160          int period_count = 0;
   \                     period_count:
   \   000000                DS 2
   \   000002                REQUIRE __INIT_XDATA_Z

   \                                 In  segment XDATA_Z, align 1, keep-with-next
    161          int device_num = 0;
   \                     device_num:
   \   000000                DS 2
   \   000002                REQUIRE __INIT_XDATA_Z

   \                                 In  segment XDATA_Z, align 1, keep-with-next
    162          int freq_count = 0;
   \                     freq_count:
   \   000000                DS 2
   \   000002                REQUIRE __INIT_XDATA_Z

   \                                 In  segment XDATA_Z, align 1, keep-with-next
    163          uint16 dst_dev = 0x0000;
   \                     dst_dev:
   \   000000                DS 2
   \   000002                REQUIRE __INIT_XDATA_Z
    164          
    165          /*********************************************************************
    166           * LOCAL FUNCTIONS
    167           */
    168          void SampleApp_HandleKeys( uint8 shift, uint8 keys );
    169          void SampleApp_MessageMSGCB( afIncomingMSGPacket_t *pckt );
    170          void SampleApp_SendPeriodicMessage( void );
    171          void SampleApp_SendFlashMessage( uint16 flashTime ,uint16 data);
    172          void SApp_ProcessMsgCBs( zdoIncomingMsg_t *msgPtr );
    173          void SampleApp_SendAddrMessage(uint8 dev[], int dev_num);
    174          void SampleApp_SendBeepMessage(uint16 dst, uint8 s);
    175          
    176          
    177          
    178          void InitT1(void);
    179          void InitT3(void);
    180          __interrupt void T3_ISR(void);
    181          void beep0(void);
    182          void beep1(void);
    183          void beep2(void);
    184          
    185          
    186          /*********************************************************************
    187           * NETWORK LAYER CALLBACKS
    188           */
    189          
    190          /*********************************************************************
    191           * PUBLIC FUNCTIONS
    192           */
    193          
    194          /*********************************************************************
    195           * @fn      SampleApp_Init
    196           *
    197           * @brief   Initialization function for the Generic App Task.
    198           *          This is called during initialization and should contain
    199           *          any application specific initialization (ie. hardware
    200           *          initialization/setup, table initialization, power up
    201           *          notificaiton ... ).
    202           *
    203           * @param   task_id - the ID assigned by OSAL.  This ID should be
    204           *                    used to send messages and set timers.
    205           *
    206           * @return  none
    207           */
    208          #define BEEP P0_7  //蜂鸣器；
    209          
    210          
    211          
    212          /****************************************************************************
    213          * 名    称: InitLed()
    214          * 功    能: 设置LED灯相应的IO口
    215          * 入口参数: 无
    216          * 出口参数: 无
    217          ****************************************************************************/
    218          
    219          /****************************************************************************
    220          * 名    称: InitT1()
    221          * 功    能: 定时器初始化，TICKSPD 是16 MHz系统不配置时默认是2分频，即16MHz
    222          * 入口参数: 无
    223          * 出口参数: 无
    224          ****************************************************************************/
    225          
    226          

   \                                 In  segment BANKED_CODE, align 1, keep-with-next
    227          void InitT1(void)
   \                     InitT1:
    228          {
   \   000000   C082         PUSH    DPL
   \   000002   C083         PUSH    DPH
   \   000004                ; Saved register size: 2
   \   000004                ; Auto size: 0
    229              CLKCONCMD &= ~0x40;      //设置系统时钟源为32MHZ晶振
   \   000004   53C6BF       ANL     0xc6,#0xbf
    230              while(CLKCONSTA & 0x40); //等待晶振稳定为32M
   \                     ??InitT1_0:
   \   000007   E59E         MOV     A,0x9e
   \   000009   A2E6         MOV     C,0xE0 /* A   */.6
   \   00000B   40FA         JC      ??InitT1_0
    231              CLKCONCMD &= ~0x07;      //设置系统主时钟频率为32MHZ   
   \   00000D   53C6F8       ANL     0xc6,#0xf8
    232              CLKCONCMD |= 0x38;       //时钟速度32 MHz 定时器标记输出设置[5:3]250kHz
   \   000010   43C638       ORL     0xc6,#0x38
    233          
    234              PERCFG |= 0x40;          //定时器1 的IO位置   1:备用位置2 
   \   000013   43F140       ORL     0xf1,#0x40
    235              P2SEL &= ~0x10;          //定时器1优先
   \   000016   53F5EF       ANL     0xf5,#0xef
    236              P2DIR |= 0xC0;           //第1优先级：定时器1通道2-3
   \   000019   43FFC0       ORL     0xff,#0xc0
    237          
    238              P0DIR |= 0x80;           //端口1为输出    
   \   00001C   43FD80       ORL     0xfd,#0x80
    239              P0SEL |= 0x80;           //timer1 通道2映射口P1_0
   \   00001F   43F380       ORL     0xf3,#0x80
    240              
    241              T1CC3H = 0x00;           //20%占空比为200us
   \   000022   9062AD       MOV     DPTR,#0x62ad
   \   000025   E4           CLR     A
   \   000026   F0           MOVX    @DPTR,A
    242              T1CC3L = 0x00;           //修改T1CC2L可调整led的亮度
   \   000027   9062AC       MOV     DPTR,#0x62ac
   \   00002A   F0           MOVX    @DPTR,A
    243              T1CC0H = 0x00;           //1ms的周期时钟,频率为976.516HZ
   \   00002B   75DB00       MOV     0xdb,#0x0
    244              T1CC0L = 0x00; 
   \   00002E   75DA00       MOV     0xda,#0x0
    245              T1CCTL3 = 0x34;          // 模式选择 通道2比较模式
   \   000031   9062A3       MOV     DPTR,#0x62a3
   \   000034   7434         MOV     A,#0x34
   \   000036   F0           MOVX    @DPTR,A
    246              T1CTL |= 0x03;            //250KHz 1分频
   \   000037   43E403       ORL     0xe4,#0x3
    247            
    248          }
   \   00003A   D083         POP     DPH
   \   00003C   D082         POP     DPL
   \   00003E   02....       LJMP    ?BRET
   \   000041                REQUIRE CLKCONCMD
   \   000041                REQUIRE CLKCONSTA
   \   000041                REQUIRE PERCFG
   \   000041                REQUIRE P2SEL
   \   000041                REQUIRE P2DIR
   \   000041                REQUIRE P0DIR
   \   000041                REQUIRE P0SEL
   \   000041                REQUIRE T1CC0H
   \   000041                REQUIRE T1CC0L
   \   000041                REQUIRE T1CTL
    249          

   \                                 In  segment BANKED_CODE, align 1, keep-with-next
    250          void InitT3(void)
   \                     InitT3:
    251          {     
   \   000000                ; Saved register size: 0
   \   000000                ; Auto size: 0
    252              T3CTL |= 0x08 ;          //开溢出中断     
   \   000000   43CB08       ORL     0xcb,#0x8
    253              T3IE = 1;                //开总中断和T3中断
   \   000003   D2BB         SETB    0xb8.3
    254              T3CTL |= 0xE0;           //128分频,128/16000000*N=0.5S,N=62500
   \   000005   43CBE0       ORL     0xcb,#0xe0
    255              T3CTL &= ~0x03;          //自动重装 00－>0xff  62500/255=245(次)
   \   000008   53CBFC       ANL     0xcb,#0xfc
    256              T3CTL |= 0x10;           //启动
   \   00000B   43CB10       ORL     0xcb,#0x10
    257              EA = 1;                  //开总中断
   \   00000E   D2AF         SETB    0xa8.7
    258          }
   \   000010   02....       LJMP    ?BRET
   \   000013                REQUIRE T3CTL
   \   000013                REQUIRE _A_IEN1
   \   000013                REQUIRE _A_IEN0
    259          #pragma vector = T3_VECTOR 

   \                                 In  segment NEAR_CODE, align 1, keep-with-next
    260          __interrupt void T3_ISR(void) 
   \                     T3_ISR:
    261          { 
   \   000000   C0E0         PUSH    A
   \   000002   C0D0         PUSH    PSW
   \   000004   E8           MOV     A,R0
   \   000005   C0E0         PUSH    A
   \   000007   E9           MOV     A,R1
   \   000008   C0E0         PUSH    A
   \   00000A   EA           MOV     A,R2
   \   00000B   C0E0         PUSH    A
   \   00000D   EB           MOV     A,R3
   \   00000E   C0E0         PUSH    A
   \   000010   C082         PUSH    DPL
   \   000012   C083         PUSH    DPH
   \   000014                ; Saved register size: 8
   \   000014                ; Auto size: 0
    262            
    263            
    264              IRCON = 0x00;            //清中断标志, 也可由硬件自动完成 
   \   000014   75C000       MOV     0xc0,#0x0
    265              
    266              
    267              if(period_count++ > 150)
   \   000017   90....       MOV     DPTR,#period_count
   \   00001A   12....       LCALL   ?Subroutine25
   \                     ??CrossCallReturnLabel_31:
   \   00001D   90....       MOV     DPTR,#period_count
   \   000020   EA           MOV     A,R2
   \   000021   F0           MOVX    @DPTR,A
   \   000022   A3           INC     DPTR
   \   000023   EB           MOV     A,R3
   \   000024   F0           MOVX    @DPTR,A
   \   000025   C3           CLR     C
   \   000026   E8           MOV     A,R0
   \   000027   9497         SUBB    A,#-0x69
   \   000029   E9           MOV     A,R1
   \   00002A   9400         SUBB    A,#0x0
   \   00002C   A2D2         MOV     C,0xD0 /* PSW */.2
   \   00002E   65D0         XRL     A,PSW
   \   000030   33           RLC     A
   \   000031   4007         JC      ??T3_ISR_0
    268              {
    269                	period_count = 0;
   \   000033   90....       MOV     DPTR,#period_count
   \   000036   E4           CLR     A
   \   000037   F0           MOVX    @DPTR,A
   \   000038   A3           INC     DPTR
   \   000039   F0           MOVX    @DPTR,A
    270              }
    271                
    272                
    273              if(count++ > 2)          //245次中断后LED取反，闪烁一轮（约为0.5 秒时间） 
   \                     ??T3_ISR_0:
   \   00003A   90....       MOV     DPTR,#count
   \   00003D   12....       LCALL   ?Subroutine25
   \                     ??CrossCallReturnLabel_32:
   \   000040   90....       MOV     DPTR,#count
   \   000043   EA           MOV     A,R2
   \   000044   F0           MOVX    @DPTR,A
   \   000045   A3           INC     DPTR
   \   000046   EB           MOV     A,R3
   \   000047   F0           MOVX    @DPTR,A
   \   000048   C3           CLR     C
   \   000049   E8           MOV     A,R0
   \   00004A   9403         SUBB    A,#0x3
   \   00004C   E9           MOV     A,R1
   \   00004D   9400         SUBB    A,#0x0
   \   00004F   A2D2         MOV     C,0xD0 /* PSW */.2
   \   000051   65D0         XRL     A,PSW
   \   000053   33           RLC     A
   \   000054   403A         JC      ??T3_ISR_1
    274              {                        //经过示波器测量确保精确
    275                  count = 0;          //计数清零          //改变LED1的状态
   \   000056   90....       MOV     DPTR,#count
   \   000059   E4           CLR     A
   \   00005A   F0           MOVX    @DPTR,A
   \   00005B   A3           INC     DPTR
   \   00005C   F0           MOVX    @DPTR,A
    276          	
    277          	if(beep_flag == 1)
   \   00005D   90....       MOV     DPTR,#beep_flag
   \   000060   E0           MOVX    A,@DPTR
   \   000061   6401         XRL     A,#0x1
   \   000063   7002         JNZ     ??T3_ISR_2
   \   000065   A3           INC     DPTR
   \   000066   E0           MOVX    A,@DPTR
   \                     ??T3_ISR_2:
   \   000067   7027         JNZ     ??T3_ISR_1
    278          		if(time_flag == 0)
   \   000069   90....       MOV     DPTR,#time_flag
   \   00006C   E0           MOVX    A,@DPTR
   \   00006D   F8           MOV     R0,A
   \   00006E   A3           INC     DPTR
   \   00006F   E0           MOVX    A,@DPTR
   \   000070   F9           MOV     R1,A
   \   000071   E8           MOV     A,R0
   \   000072   49           ORL     A,R1
   \   000073   90....       MOV     DPTR,#time_flag
   \   000076   700E         JNZ     ??T3_ISR_3
    279          		{
    280          			time_flag = 1;
   \   000078   7401         MOV     A,#0x1
   \   00007A   F0           MOVX    @DPTR,A
   \   00007B   A3           INC     DPTR
   \   00007C   E4           CLR     A
   \   00007D   F0           MOVX    @DPTR,A
    281          			beep1();
   \   00007E   75DB00       MOV     0xdb,#0x0
   \   000081   75DAFF       MOV     0xda,#-0x1
    282          		}
   \   000084   800A         SJMP    ??T3_ISR_1
    283          		else
    284          		{
    285          			time_flag = 0;
   \                     ??T3_ISR_3:
   \   000086   E4           CLR     A
   \   000087   F0           MOVX    @DPTR,A
   \   000088   A3           INC     DPTR
   \   000089   F0           MOVX    @DPTR,A
    286          			beep0();
   \   00008A   75DB00       MOV     0xdb,#0x0
   \   00008D   75DA00       MOV     0xda,#0x0
    287          		}
    288              } 
    289          }
   \                     ??T3_ISR_1:
   \   000090   D083         POP     DPH
   \   000092   D082         POP     DPL
   \   000094   D0E0         POP     A
   \   000096   FB           MOV     R3,A
   \   000097   D0E0         POP     A
   \   000099   FA           MOV     R2,A
   \   00009A   D0E0         POP     A
   \   00009C   F9           MOV     R1,A
   \   00009D   D0E0         POP     A
   \   00009F   F8           MOV     R0,A
   \   0000A0   D0D0         POP     PSW
   \   0000A2   D0E0         POP     A
   \   0000A4   32           RETI
   \   0000A5                REQUIRE _A_IRCON
   \   0000A5                REQUIRE T1CC0H
   \   0000A5                REQUIRE T1CC0L

   \                                 In  segment NEAR_CODE, align 1, keep-with-next
   \                     ?Subroutine25:
   \   000000   E0           MOVX    A,@DPTR
   \   000001   F8           MOV     R0,A
   \   000002   A3           INC     DPTR
   \   000003   E0           MOVX    A,@DPTR
   \   000004   F9           MOV     R1,A
   \   000005   E8           MOV     A,R0
   \   000006   2401         ADD     A,#0x1
   \   000008   FA           MOV     R2,A
   \   000009   E9           MOV     A,R1
   \   00000A   3400         ADDC    A,#0x0
   \   00000C   FB           MOV     R3,A
   \   00000D   22           RET
    290          
    291          
    292          

   \                                 In  segment BANKED_CODE, align 1, keep-with-next
    293          void beep0(void)
   \                     beep0:
    294          {
   \   000000                ; Saved register size: 0
   \   000000                ; Auto size: 0
    295              T1CC0H = 0x00;           //0ms的周期时钟,频率为976.516HZ
   \   000000   75DB00       MOV     0xdb,#0x0
    296              T1CC0L = 0x00; 
   \   000003   75DA00       MOV     0xda,#0x0
    297          }
   \   000006   02....       LJMP    ?BRET
   \   000009                REQUIRE T1CC0H
   \   000009                REQUIRE T1CC0L

   \                                 In  segment BANKED_CODE, align 1, keep-with-next
    298          void beep1(void)
   \                     beep1:
    299          {
   \   000000                ; Saved register size: 0
   \   000000                ; Auto size: 0
    300              T1CC0H = 0x00;           //1ms的周期时钟,频率为976.516HZ
   \   000000   75DB00       MOV     0xdb,#0x0
    301              T1CC0L = 0xff; 
   \   000003                REQUIRE ?Subroutine0
   \   000003                REQUIRE T1CC0H
   \   000003                REQUIRE T1CC0L
   \   000003                ; // Fall through to label ?Subroutine0
    302              
    303          }

   \                                 In  segment BANKED_CODE, align 1, keep-with-next
   \                     ?Subroutine0:
   \   000000   75DAFF       MOV     0xda,#-0x1
   \   000003   02....       LJMP    ?BRET

   \                                 In  segment BANKED_CODE, align 1, keep-with-next
    304          void beep2(void)
   \                     beep2:
    305          {
   \   000000                ; Saved register size: 0
   \   000000                ; Auto size: 0
    306              T1CC0H = 0x01;           //2ms的周期时钟,频率为976.516HZ
   \   000000   75DB01       MOV     0xdb,#0x1
    307              T1CC0L = 0xff;
   \   000003   80..         SJMP    ?Subroutine0
   \   000005                REQUIRE T1CC0H
   \   000005                REQUIRE T1CC0L
    308          }
    309          
    310          
    311          

   \                                 In  segment BANKED_CODE, align 1, keep-with-next
    312          void SampleApp_Init( uint8 task_id )
   \                     SampleApp_Init:
    313          { 
   \   000000   74F5         MOV     A,#-0xb
   \   000002   12....       LCALL   ?BANKED_ENTER_XDATA
   \   000005                ; Saved register size: 11
   \   000005                ; Auto size: 0
   \   000005   E9           MOV     A,R1
    314            SampleApp_TaskID = task_id;   //osal分配的任务ID随着用户添加任务的增多而改变
   \   000006   90....       MOV     DPTR,#SampleApp_TaskID
   \   000009   F0           MOVX    @DPTR,A
    315            SampleApp_NwkState = DEV_INIT;//设备状态设定为ZDO层中定义的初始化状态
   \   00000A   90....       MOV     DPTR,#SampleApp_NwkState
   \   00000D   7401         MOV     A,#0x1
   \   00000F   F0           MOVX    @DPTR,A
    316            SampleApp_TransID = 0;        //消息发送ID（多消息时有顺序之分）
   \   000010   90....       MOV     DPTR,#SampleApp_TransID
   \   000013   E4           CLR     A
   \   000014   F0           MOVX    @DPTR,A
    317            
    318            // Device hardware initialization can be added here or in main() (Zmain.c).
    319            // If the hardware is application specific - add it here.
    320            // If the hardware is other parts of the device add it in main().
    321          
    322           #if defined ( BUILD_ALL_DEVICES )
    323            // The "Demo" target is setup to have BUILD_ALL_DEVICES and HOLD_AUTO_START
    324            // We are looking at a jumper (defined in SampleAppHw.c) to be jumpered
    325            // together - if they are - we will start up a coordinator. Otherwise,
    326            // the device will start as a router.
    327            if ( readCoordinatorJumper() )
    328              zgDeviceLogicalType = ZG_DEVICETYPE_COORDINATOR;
    329            else
    330              zgDeviceLogicalType = ZG_DEVICETYPE_ROUTER;
    331          #endif // BUILD_ALL_DEVICES
    332          
    333          //该段的意思是，如果设置了HOLD_AUTO_START宏定义，将会在启动芯片的时候会暂停启动
    334          //流程，只有外部触发以后才会启动芯片。其实就是需要一个按钮触发它的启动流程。  
    335          #if defined ( HOLD_AUTO_START )
    336            // HOLD_AUTO_START is a compile option that will surpress ZDApp
    337            //  from starting the device and wait for the application to
    338            //  start the device.
    339            ZDOInitDevice(0);
    340          #endif
    341          
    342            // Setup for the periodic message's destination address 设置发送数据的方式和目的地址寻址模式
    343            // Broadcast to everyone 发送模式:广播发送
    344            SampleApp_Periodic_DstAddr.addrMode = (afAddrMode_t)AddrBroadcast;//广播
   \   000015   90....       MOV     DPTR,#SampleApp_Periodic_DstAddr + 8
   \   000018   740F         MOV     A,#0xf
   \   00001A   F0           MOVX    @DPTR,A
    345            SampleApp_Periodic_DstAddr.endPoint = SAMPLEAPP_ENDPOINT; //指定端点号
   \   00001B   A3           INC     DPTR
   \   00001C   7414         MOV     A,#0x14
   \   00001E   F0           MOVX    @DPTR,A
    346            SampleApp_Periodic_DstAddr.addr.shortAddr = 0xFFFF;//指定目的网络地址为广播地址
   \   00001F   90....       MOV     DPTR,#SampleApp_Periodic_DstAddr
   \   000022   74FF         MOV     A,#-0x1
   \   000024   F0           MOVX    @DPTR,A
   \   000025   A3           INC     DPTR
   \   000026   F0           MOVX    @DPTR,A
    347          
    348            // Setup for the flash command's destination address - Group 1 组播发送
    349            SampleApp_Flash_DstAddr.addrMode = (afAddrMode_t)afAddrGroup; //组寻址
   \   000027   90....       MOV     DPTR,#SampleApp_Flash_DstAddr + 8
   \   00002A   7401         MOV     A,#0x1
   \   00002C   F0           MOVX    @DPTR,A
    350            SampleApp_Flash_DstAddr.endPoint = SAMPLEAPP_ENDPOINT; //指定端点号
   \   00002D   A3           INC     DPTR
   \   00002E   7414         MOV     A,#0x14
   \   000030   F0           MOVX    @DPTR,A
    351            SampleApp_Flash_DstAddr.addr.shortAddr = SAMPLEAPP_FLASH_GROUP;//组号0x0001
   \   000031   90....       MOV     DPTR,#SampleApp_Flash_DstAddr
   \   000034   7401         MOV     A,#0x1
   \   000036   F0           MOVX    @DPTR,A
   \   000037   A3           INC     DPTR
   \   000038   E4           CLR     A
   \   000039   F0           MOVX    @DPTR,A
    352            
    353            SampleApp_Single_DstAddr.addrMode = (afAddrMode_t)Addr16Bit;
   \   00003A   90....       MOV     DPTR,#SampleApp_Single_DstAddr + 8
   \   00003D   7402         MOV     A,#0x2
   \   00003F   F0           MOVX    @DPTR,A
    354            SampleApp_Single_DstAddr.endPoint = SAMPLEAPP_ENDPOINT;
   \   000040   A3           INC     DPTR
   \   000041   7414         MOV     A,#0x14
   \   000043   F0           MOVX    @DPTR,A
    355            SampleApp_Single_DstAddr.addr.shortAddr = 0x0000;
   \   000044   90....       MOV     DPTR,#SampleApp_Single_DstAddr
   \   000047   E4           CLR     A
   \   000048   F0           MOVX    @DPTR,A
   \   000049   A3           INC     DPTR
   \   00004A   F0           MOVX    @DPTR,A
    356          
    357            // Fill out the endpoint description. 定义本设备用来通信的APS层端点描述符
    358            SampleApp_epDesc.endPoint = SAMPLEAPP_ENDPOINT; //指定端点号
   \   00004B   90....       MOV     DPTR,#SampleApp_epDesc
   \   00004E   7414         MOV     A,#0x14
   \   000050   F0           MOVX    @DPTR,A
    359            SampleApp_epDesc.task_id = &SampleApp_TaskID;   //SampleApp 描述符的任务ID
   \   000051   A3           INC     DPTR
   \   000052   74..         MOV     A,#SampleApp_TaskID & 0xff
   \   000054   F0           MOVX    @DPTR,A
   \   000055   A3           INC     DPTR
   \   000056   74..         MOV     A,#(SampleApp_TaskID >> 8) & 0xff
   \   000058   F0           MOVX    @DPTR,A
    360            SampleApp_epDesc.simpleDesc
    361                      = (SimpleDescriptionFormat_t *)&SampleApp_SimpleDesc;//SampleApp简单描述符
   \   000059   A3           INC     DPTR
   \   00005A   74..         MOV     A,#SampleApp_SimpleDesc & 0xff
   \   00005C   F0           MOVX    @DPTR,A
   \   00005D   A3           INC     DPTR
   \   00005E   74..         MOV     A,#(SampleApp_SimpleDesc >> 8) & 0xff
   \   000060   F0           MOVX    @DPTR,A
    362            SampleApp_epDesc.latencyReq = noLatencyReqs;    //延时策略
   \   000061   A3           INC     DPTR
   \   000062   E4           CLR     A
   \   000063   F0           MOVX    @DPTR,A
    363          
    364            // Register the endpoint description with the AF
    365            afRegister( &SampleApp_epDesc );    //向AF层登记描述符
   \   000064                ; Setup parameters for call to function afRegister
   \   000064   7A..         MOV     R2,#SampleApp_epDesc & 0xff
   \   000066   7B..         MOV     R3,#(SampleApp_epDesc >> 8) & 0xff
   \   000068   12....       LCALL   ??afRegister?relay
    366          
    367            // Register for all key events - This app will handle all key events
    368            RegisterForKeys( SampleApp_TaskID ); // 登记所有的按键事件
   \   00006B                ; Setup parameters for call to function RegisterForKeys
   \   00006B   90....       MOV     DPTR,#SampleApp_TaskID
   \   00006E   E0           MOVX    A,@DPTR
   \   00006F   F9           MOV     R1,A
   \   000070   12....       LCALL   ??RegisterForKeys?relay
    369          
    370            // By default, all devices start out in Group 1
    371            SampleApp_Group.ID = 0x0001;//组号
   \   000073   90....       MOV     DPTR,#SampleApp_Group
   \   000076   7401         MOV     A,#0x1
   \   000078   F0           MOVX    @DPTR,A
   \   000079   A3           INC     DPTR
   \   00007A   E4           CLR     A
   \   00007B   F0           MOVX    @DPTR,A
    372            osal_memcpy( SampleApp_Group.name, "Group 1", 7  );//设定组名
   \   00007C                ; Setup parameters for call to function osal_memcpy
   \   00007C   75....       MOV     ?V0 + 0,#`?<Constant "Group 1">` & 0xff
   \   00007F   75....       MOV     ?V0 + 1,#(`?<Constant "Group 1">` >> 8) & 0xff
   \   000082   F5..         MOV     ?V0 + 2,A
   \   000084   78..         MOV     R0,#?V0 + 0
   \   000086   12....       LCALL   ?PUSH_XSTACK_I_THREE
   \   000089   7C07         MOV     R4,#0x7
   \   00008B   7D00         MOV     R5,#0x0
   \   00008D   7A..         MOV     R2,#(SampleApp_Group + 2) & 0xff
   \   00008F   7B..         MOV     R3,#((SampleApp_Group + 2) >> 8) & 0xff
   \   000091   12....       LCALL   ??Subroutine28_0 & 0xFFFF
   \                     ??CrossCallReturnLabel_39:
   \   000094   12....       LCALL   ?DEALLOC_XSTACK8
    373            aps_AddGroup( SAMPLEAPP_ENDPOINT, &SampleApp_Group );//把该组登记添加到APS中
   \   000097                ; Setup parameters for call to function aps_AddGroup
   \   000097   7A..         MOV     R2,#SampleApp_Group & 0xff
   \   000099   7B..         MOV     R3,#(SampleApp_Group >> 8) & 0xff
   \   00009B   7914         MOV     R1,#0x14
   \   00009D   12....       LCALL   ??aps_AddGroup?relay
    374          
    375          #if defined ( LCD_SUPPORTED )
    376            HalLcdWriteString( "SampleApp", HAL_LCD_LINE_1 ); //如果支持LCD，显示提示信息
   \   0000A0                ; Setup parameters for call to function HalLcdWriteString
   \   0000A0   7900         MOV     R1,#0x0
   \   0000A2   7A..         MOV     R2,#`?<Constant "SampleApp">` & 0xff
   \   0000A4   7B..         MOV     R3,#(`?<Constant "SampleApp">` >> 8) & 0xff
   \   0000A6   12....       LCALL   ??HalLcdWriteString?relay
    377          #endif
    378            
    379           // register for end device annce and simple descriptor responses
    380           ZDO_RegisterForZDOMsg( SampleApp_TaskID, Device_annce );
   \   0000A9                ; Setup parameters for call to function ZDO_RegisterForZDOMsg
   \   0000A9   7A13         MOV     R2,#0x13
   \   0000AB   7B00         MOV     R3,#0x0
   \   0000AD   90....       MOV     DPTR,#SampleApp_TaskID
   \   0000B0   E0           MOVX    A,@DPTR
   \   0000B1   F9           MOV     R1,A
   \   0000B2   12....       LCALL   ??ZDO_RegisterForZDOMsg?relay
    381            
    382            InitT1();
   \   0000B5                ; Setup parameters for call to function InitT1
   \   0000B5   12....       LCALL   ??InitT1?relay
    383            InitT3();
   \   0000B8                ; Setup parameters for call to function InitT3
   \   0000B8   12....       LCALL   ??InitT3?relay
    384            
    385            #if defined(ZDO_COORDINATOR)                      //协调器短地址为0000
    386            {
    387              device[0] = 0x0000;
   \   0000BB   90....       MOV     DPTR,#device
   \   0000BE   E4           CLR     A
   \   0000BF   F0           MOVX    @DPTR,A
   \   0000C0   A3           INC     DPTR
   \   0000C1   F0           MOVX    @DPTR,A
    388            }
    389            #endif
    390          }
   \   0000C2   7F03         MOV     R7,#0x3
   \   0000C4   02....       LJMP    ?BANKED_LEAVE_XDATA

   \                                 In  segment BANKED_CODE, align 1, keep-with-next
   \                     ??Subroutine28_0:
   \   000000   12....       LCALL   ??osal_memcpy?relay
   \   000003   7403         MOV     A,#0x3
   \   000005   22           RET
    391          
    392          /*********************************************************************
    393           * @fn      SampleApp_ProcessEvent
    394           *
    395           * @brief   Generic Application Task event processor.  This function
    396           *          is called to process all events for the task.  Events
    397           *          include timers, messages and any other user defined events.
    398           *
    399           * @param   task_id  - The OSAL assigned task ID.
    400           * @param   events - events to process.  This is a bit map and can
    401           *                   contain more than one event.
    402           *
    403           * @return  none
    404           */
    405          //用户应用任务的事件处理函数

   \                                 In  segment BANKED_CODE, align 1, keep-with-next
    406          uint16 SampleApp_ProcessEvent( uint8 task_id, uint16 events )
   \                     SampleApp_ProcessEvent:
    407          {
   \   000000   74F4         MOV     A,#-0xc
   \   000002   12....       LCALL   ?BANKED_ENTER_XDATA
   \   000005                ; Saved register size: 12
   \   000005                ; Auto size: 0
   \   000005   EA           MOV     A,R2
   \   000006   FE           MOV     R6,A
   \   000007   EB           MOV     A,R3
   \   000008   FF           MOV     R7,A
    408            afIncomingMSGPacket_t *MSGpkt;
    409            (void)task_id;  // Intentionally unreferenced parameter
    410          
    411            if ( events & SYS_EVENT_MSG ) //接收系统消息再进行判断
   \   000009   5480         ANL     A,#0x80
   \   00000B   6078         JZ      ??SampleApp_ProcessEvent_0
    412            {
    413              //接收属于本应用任务SampleApp的消息，以SampleApp_TaskID标记
    414              MSGpkt = (afIncomingMSGPacket_t *)osal_msg_receive( SampleApp_TaskID );
   \   00000D                ; Setup parameters for call to function osal_msg_receive
   \   00000D   801D         SJMP    ??SampleApp_ProcessEvent_1
    415              while ( MSGpkt )
    416              {
    417                switch ( MSGpkt->hdr.event )
    418                {
    419                  // Received when a key is pressed
    420                  case KEY_CHANGE://按键事件
    421                    SampleApp_HandleKeys( ((keyChange_t *)MSGpkt)->state, ((keyChange_t *)MSGpkt)->keys );
    422                    break;
    423          
    424                  // Received when a messages is received (OTA) for this endpoint
    425                  case AF_INCOMING_MSG_CMD://接收数据事件,调用函数AF_DataRequest()接收数据
    426                    SampleApp_MessageMSGCB( MSGpkt );//调用回调函数对收到的数据进行处理
    427                    break;
    428          	  
    429          	case ZDO_CB_MSG:
    430          	  SApp_ProcessMsgCBs( (zdoIncomingMsg_t *)MSGpkt);
    431          	  break;
    432          	  
    433          	  
    434          	case AF_DATA_CONFIRM_CMD:
    435          	  
    436          	  
    437          	  break;
    438          	  
    439          	  
    440          	  
    441                  // Received whenever the device changes state in the network
    442                  case ZDO_STATE_CHANGE:
    443          	  
    444          	  
    445          	  
    446                    //只要网络状态发生改变，就通过ZDO_STATE_CHANGE事件通知所有的任务。
    447                    //同时完成对协调器，路由器，终端的设置
    448                    SampleApp_NwkState = (devStates_t)(MSGpkt->hdr.status);
   \                     ??SampleApp_ProcessEvent_2:
   \   00000F   A3           INC     DPTR
   \   000010   E0           MOVX    A,@DPTR
   \   000011   90....       MOV     DPTR,#SampleApp_NwkState
   \   000014   F0           MOVX    @DPTR,A
    449          	  
    450          	  
    451          	 /**********************************************\
    452          	  
    453                    if ( (SampleApp_NwkState == DEV_ZB_COORD)//实验中协调器只接收数据所以取消发送事件
    454                    if ( (SampleApp_NwkState == DEV_ROUTER) || (SampleApp_NwkState == DEV_END_DEVICE) )
    455                    //{
    456                      // Start sending the periodic message in a regular interval.
    457                      //这个定时器只是为发送周期信息开启的，设备启动初始化后从这里开始
    458                      //触发第一个周期信息的发送，然后周而复始下去
    459          	  
    460          	  \***************************************************/
    461          	  
    462          	  
    463                      osal_start_timerEx( SampleApp_TaskID,
    464                                        SAMPLEAPP_SEND_PERIODIC_MSG_EVT,
    465                                        SAMPLEAPP_SEND_PERIODIC_MSG_TIMEOUT );
   \   000015                ; Setup parameters for call to function osal_start_timerEx
   \   000015   7CB8         MOV     R4,#-0x48
   \   000017   7D0B         MOV     R5,#0xb
   \   000019   7A01         MOV     R2,#0x1
   \   00001B   7B00         MOV     R3,#0x0
   \   00001D   90....       MOV     DPTR,#SampleApp_TaskID
   \   000020   E0           MOVX    A,@DPTR
   \   000021   F9           MOV     R1,A
   \   000022   12....       LCALL   ??osal_start_timerEx?relay
    466                    
    467          	    
    468          	    
    469          	   /**********************************************\
    470          	    
    471          	  }  
    472                    else
    473                    {
    474                      // Device is no longer in the network
    475                    }
    476          	    
    477          	    \***************************************************/
    478          	   
    479                    break;
    480          
    481                  default:
    482                    break;
    483                }
    484          
    485                // Release the memory 事件处理完了，释放消息占用的内存
    486                osal_msg_deallocate( (uint8 *)MSGpkt );
   \                     ??SampleApp_ProcessEvent_3:
   \   000025                ; Setup parameters for call to function osal_msg_deallocate
   \   000025   AA..         MOV     R2,?V0 + 0
   \   000027   AB..         MOV     R3,?V0 + 1
   \   000029   12....       LCALL   ??osal_msg_deallocate?relay
    487          
    488                // Next - if one is available 指针指向下一个放在缓冲区的待处理的事件，
    489                //返回while ( MSGpkt )重新处理事件，直到缓冲区没有等待处理事件为止
    490                MSGpkt = (afIncomingMSGPacket_t *)osal_msg_receive( SampleApp_TaskID );
   \   00002C                ; Setup parameters for call to function osal_msg_receive
   \                     ??SampleApp_ProcessEvent_1:
   \   00002C   90....       MOV     DPTR,#SampleApp_TaskID
   \   00002F   E0           MOVX    A,@DPTR
   \   000030   F9           MOV     R1,A
   \   000031   12....       LCALL   ??osal_msg_receive?relay
   \   000034   8A..         MOV     ?V0 + 0,R2
   \   000036   8B..         MOV     ?V0 + 1,R3
   \   000038   E5..         MOV     A,?V0 + 0
   \   00003A   45..         ORL     A,?V0 + 1
   \   00003C   603F         JZ      ??SampleApp_ProcessEvent_4
   \   00003E   85..82       MOV     DPL,?V0 + 0
   \   000041   85..83       MOV     DPH,?V0 + 1
   \   000044   E0           MOVX    A,@DPTR
   \   000045   24E6         ADD     A,#-0x1a
   \   000047   6022         JZ      ??SampleApp_ProcessEvent_5
   \   000049   245A         ADD     A,#0x5a
   \   00004B   600A         JZ      ??SampleApp_ProcessEvent_6
   \   00004D   24EF         ADD     A,#-0x11
   \   00004F   60BE         JZ      ??SampleApp_ProcessEvent_2
   \   000051   24FE         ADD     A,#-0x2
   \   000053   601F         JZ      ??SampleApp_ProcessEvent_7
   \   000055   80CE         SJMP    ??SampleApp_ProcessEvent_3
   \                     ??SampleApp_ProcessEvent_6:
   \   000057                ; Setup parameters for call to function SampleApp_HandleKeys
   \   000057   A3           INC     DPTR
   \   000058   A3           INC     DPTR
   \   000059   A3           INC     DPTR
   \   00005A   E0           MOVX    A,@DPTR
   \   00005B   FA           MOV     R2,A
   \   00005C   85..82       MOV     DPL,?V0 + 0
   \   00005F   85..83       MOV     DPH,?V0 + 1
   \   000062   A3           INC     DPTR
   \   000063   A3           INC     DPTR
   \   000064   E0           MOVX    A,@DPTR
   \   000065   F9           MOV     R1,A
   \   000066   12....       LCALL   ??SampleApp_HandleKeys?relay
   \   000069   80BA         SJMP    ??SampleApp_ProcessEvent_3
   \                     ??SampleApp_ProcessEvent_5:
   \   00006B                ; Setup parameters for call to function SampleApp_MessageMSGCB
   \   00006B   AA..         MOV     R2,?V0 + 0
   \   00006D   AB..         MOV     R3,?V0 + 1
   \   00006F   12....       LCALL   ??SampleApp_MessageMSGCB?relay
   \   000072   80B1         SJMP    ??SampleApp_ProcessEvent_3
   \                     ??SampleApp_ProcessEvent_7:
   \   000074                ; Setup parameters for call to function SApp_ProcessMsgCBs
   \   000074   AA..         MOV     R2,?V0 + 0
   \   000076   AB..         MOV     R3,?V0 + 1
   \   000078   12....       LCALL   ??SApp_ProcessMsgCBs?relay
   \   00007B   80A8         SJMP    ??SampleApp_ProcessEvent_3
    491              }
    492          
    493              // return unprocessed events 返回未处理的事件
    494              return (events ^ SYS_EVENT_MSG);
   \                     ??SampleApp_ProcessEvent_4:
   \   00007D   EE           MOV     A,R6
   \   00007E   FA           MOV     R2,A
   \   00007F   EF           MOV     A,R7
   \   000080   6480         XRL     A,#0x80
   \                     ??SampleApp_ProcessEvent_8:
   \   000082   FB           MOV     R3,A
   \   000083   802A         SJMP    ??SampleApp_ProcessEvent_9
    495            }
    496          
    497            // Send a message out - This event is generated by a timer
    498            //  (setup in SampleApp_Init()).
    499            if ( events & SAMPLEAPP_SEND_PERIODIC_MSG_EVT )
   \                     ??SampleApp_ProcessEvent_0:
   \   000085   EE           MOV     A,R6
   \   000086   A2E0         MOV     C,0xE0 /* A   */.0
   \   000088   5021         JNC     ??SampleApp_ProcessEvent_10
    500            {
    501              // Send the periodic message 处理周期性事件，
    502              //利用SampleApp_SendPeriodicMessage()处理完当前的周期性事件，然后启动定时器
    503              //开启下一个周期性事情，这样一种循环下去，也即是上面说的周期性事件了，
    504              //可以做为传感器定时采集、上传任务
    505              SampleApp_SendPeriodicMessage();
   \   00008A                ; Setup parameters for call to function SampleApp_SendPeriodicMessage
   \   00008A   12....       LCALL   ??SampleApp_SendPeriodicMessage?relay
    506          
    507              // Setup to send message again in normal period (+ a little jitter)
    508              osal_start_timerEx( SampleApp_TaskID, SAMPLEAPP_SEND_PERIODIC_MSG_EVT,
    509                  (SAMPLEAPP_SEND_PERIODIC_MSG_TIMEOUT + (osal_rand() & 0x00FF)) );
   \   00008D                ; Setup parameters for call to function osal_rand
   \   00008D   12....       LCALL   ??osal_rand?relay
   \   000090                ; Setup parameters for call to function osal_start_timerEx
   \   000090   EA           MOV     A,R2
   \   000091   24B8         ADD     A,#-0x48
   \   000093   FC           MOV     R4,A
   \   000094   E4           CLR     A
   \   000095   340B         ADDC    A,#0xb
   \   000097   FD           MOV     R5,A
   \   000098   7A01         MOV     R2,#0x1
   \   00009A   7B00         MOV     R3,#0x0
   \   00009C   90....       MOV     DPTR,#SampleApp_TaskID
   \   00009F   E0           MOVX    A,@DPTR
   \   0000A0   F9           MOV     R1,A
   \   0000A1   12....       LCALL   ??osal_start_timerEx?relay
    510          
    511              // return unprocessed events 返回未处理的事件
    512              return (events ^ SAMPLEAPP_SEND_PERIODIC_MSG_EVT);
   \   0000A4   EE           MOV     A,R6
   \   0000A5   6401         XRL     A,#0x1
   \   0000A7   FA           MOV     R2,A
   \   0000A8   EF           MOV     A,R7
   \   0000A9   80D7         SJMP    ??SampleApp_ProcessEvent_8
    513            }
    514          
    515            // Discard unknown events
    516            return 0;
   \                     ??SampleApp_ProcessEvent_10:
   \   0000AB   7A00         MOV     R2,#0x0
   \   0000AD   7B00         MOV     R3,#0x0
   \                     ??SampleApp_ProcessEvent_9:
   \   0000AF   80..         SJMP    ??Subroutine26_0
    517          }

   \                                 In  segment BANKED_CODE, align 1, keep-with-next
   \                     ??Subroutine26_0:
   \   000000   7F04         MOV     R7,#0x4
   \   000002   02....       LJMP    ?BANKED_LEAVE_XDATA
    518          
    519          
    520          /*********************************************************************
    521           * Event Generation Functions
    522           */
    523          /*********************************************************************
    524           * @fn      SampleApp_HandleKeys
    525           *
    526           * @brief   Handles all key events for this device.
    527           *
    528           * @param   shift - true if in shift/alt.
    529           * @param   keys - bit field for key events. Valid entries:
    530           *                 HAL_KEY_SW_2
    531           *                 HAL_KEY_SW_1
    532           *
    533           * @return  none
    534           */

   \                                 In  segment BANKED_CODE, align 1, keep-with-next
    535          void SampleApp_HandleKeys( uint8 shift, uint8 keys ) //此实验没有用到，后面再分析
   \                     SampleApp_HandleKeys:
    536          {
   \   000000   74F4         MOV     A,#-0xc
   \   000002   12....       LCALL   ?BANKED_ENTER_XDATA
   \   000005                ; Saved register size: 12
   \   000005                ; Auto size: 0
   \   000005   EA           MOV     A,R2
   \   000006   FE           MOV     R6,A
    537            
    538            (void)shift;  // Intentionally unreferenced parameter
    539            
    540            if ( keys & HAL_KEY_SW_1 )//key2
   \   000007   A2E0         MOV     C,0xE0 /* A   */.0
   \   000009   4003         JC      $+5
   \   00000B   02....       LJMP    ??SampleApp_HandleKeys_0 & 0xFFFF
    541            {
    542              
    543              		
    544          	//SampleApp_SendFlashMessage( SAMPLEAPP_FLASH_DURATION, 2);
    545          	  	
    546              	switch(sel_dev)
   \   00000E   90....       MOV     DPTR,#sel_dev
   \   000011   12....       LCALL   ?Subroutine8 & 0xFFFF
   \                     ??CrossCallReturnLabel_9:
   \   000014   12....       LCALL   ?US_SWITCH_DENSE
   \                     `?<Jumptable for SampleApp_HandleKeys>_0`:
   \   000017   0000         DW        0
   \   000019   09           DB        9
   \   00001A   ....         DW        ??SampleApp_HandleKeys_1
   \   00001C   ....         DW        ??SampleApp_HandleKeys_2
   \   00001E   ....         DW        ??SampleApp_HandleKeys_3
   \   000020   ....         DW        ??SampleApp_HandleKeys_4
   \   000022   ....         DW        ??SampleApp_HandleKeys_5
   \   000024   ....         DW        ??SampleApp_HandleKeys_6
   \   000026   ....         DW        ??SampleApp_HandleKeys_7
   \   000028   ....         DW        ??SampleApp_HandleKeys_8
   \   00002A   ....         DW        ??SampleApp_HandleKeys_9
   \   00002C   ....         DW        ??SampleApp_HandleKeys_10
   \   00002E   ....         DW        ??SampleApp_HandleKeys_11
    547          	{
    548          	case 0:
    549          	  sel_dev = 1;
   \                     ??SampleApp_HandleKeys_2:
   \   000030   90....       MOV     DPTR,#sel_dev
   \   000033   7401         MOV     A,#0x1
   \                     ??SampleApp_HandleKeys_12:
   \   000035   F0           MOVX    @DPTR,A
   \   000036   A3           INC     DPTR
   \   000037   E4           CLR     A
   \   000038   803E         SJMP    ??SampleApp_HandleKeys_13
    550          	  break;
    551          	case 1:
    552          	  sel_dev = 2;
   \                     ??SampleApp_HandleKeys_3:
   \   00003A   90....       MOV     DPTR,#sel_dev
   \   00003D   7402         MOV     A,#0x2
   \   00003F   80F4         SJMP    ??SampleApp_HandleKeys_12
    553          	  break;
    554          	case 2:
    555          	  sel_dev = 3;
   \                     ??SampleApp_HandleKeys_4:
   \   000041   90....       MOV     DPTR,#sel_dev
   \   000044   7403         MOV     A,#0x3
   \   000046   80ED         SJMP    ??SampleApp_HandleKeys_12
    556          	  break;
    557          	case 3:
    558          	  sel_dev = 4;
   \                     ??SampleApp_HandleKeys_5:
   \   000048   90....       MOV     DPTR,#sel_dev
   \   00004B   7404         MOV     A,#0x4
   \   00004D   80E6         SJMP    ??SampleApp_HandleKeys_12
    559          	  break;
    560          	case 4:
    561          	  sel_dev = 5;
   \                     ??SampleApp_HandleKeys_6:
   \   00004F   90....       MOV     DPTR,#sel_dev
   \   000052   7405         MOV     A,#0x5
   \   000054   80DF         SJMP    ??SampleApp_HandleKeys_12
    562          	  break;
    563          	case 5:
    564          	  sel_dev = 6;
   \                     ??SampleApp_HandleKeys_7:
   \   000056   90....       MOV     DPTR,#sel_dev
   \   000059   7406         MOV     A,#0x6
   \   00005B   80D8         SJMP    ??SampleApp_HandleKeys_12
    565          	  break;
    566          	case 6:
    567          	  sel_dev = 7;
   \                     ??SampleApp_HandleKeys_8:
   \   00005D   90....       MOV     DPTR,#sel_dev
   \   000060   7407         MOV     A,#0x7
   \   000062   80D1         SJMP    ??SampleApp_HandleKeys_12
    568          	  break;
    569          	case 7:
    570          	  sel_dev = 8;
   \                     ??SampleApp_HandleKeys_9:
   \   000064   90....       MOV     DPTR,#sel_dev
   \   000067   7408         MOV     A,#0x8
   \   000069   80CA         SJMP    ??SampleApp_HandleKeys_12
    571          	  break;
    572          	case 8:
    573          	  sel_dev = 9;
   \                     ??SampleApp_HandleKeys_10:
   \   00006B   90....       MOV     DPTR,#sel_dev
   \   00006E   7409         MOV     A,#0x9
   \   000070   80C3         SJMP    ??SampleApp_HandleKeys_12
    574          	  break;
    575          	case 9:
    576          	  sel_dev = 0;
   \                     ??SampleApp_HandleKeys_11:
   \   000072   90....       MOV     DPTR,#sel_dev
   \   000075   E4           CLR     A
   \   000076   F0           MOVX    @DPTR,A
   \   000077   A3           INC     DPTR
   \                     ??SampleApp_HandleKeys_13:
   \   000078   F0           MOVX    @DPTR,A
    577          	  break;
    578          	}
    579          	
    580          	
    581          	
    582          #if defined ( LCD_SUPPORTED )
    583              HalLcdWriteStringValue("sel_dev:", sel_dev, 10, 6);
   \                     ??SampleApp_HandleKeys_1:
   \   000079                ; Setup parameters for call to function HalLcdWriteStringValue
   \   000079   90....       MOV     DPTR,#sel_dev
   \   00007C   12....       LCALL   ?Subroutine7 & 0xFFFF
   \                     ??CrossCallReturnLabel_7:
   \   00007F   12....       LCALL   ?PUSH_XSTACK_I_FOUR
   \   000082   7C06         MOV     R4,#0x6
   \   000084   790A         MOV     R1,#0xa
   \   000086   7A..         MOV     R2,#`?<Constant "sel_dev:">` & 0xff
   \   000088   7B..         MOV     R3,#(`?<Constant "sel_dev:">` >> 8) & 0xff
   \   00008A   12....       LCALL   ??Subroutine31_0 & 0xFFFF
   \                     ??CrossCallReturnLabel_56:
   \   00008D   12....       LCALL   ?DEALLOC_XSTACK8
    584          #endif    
    585              
    586              
    587              
    588              if(sel_dev < device_num)
   \   000090   12....       LCALL   ?Subroutine10 & 0xFFFF
   \                     ??CrossCallReturnLabel_44:
   \   000093   7583..       MOV     DPH,#(sel_dev >> 8) & 0xff
   \   000096   7582..       MOV     DPL,#sel_dev & 0xff
   \   000099   C3           CLR     C
   \   00009A   E0           MOVX    A,@DPTR
   \   00009B   98           SUBB    A,R0
   \   00009C   A3           INC     DPTR
   \   00009D   E0           MOVX    A,@DPTR
   \   00009E   99           SUBB    A,R1
   \   00009F   A2D2         MOV     C,0xD0 /* PSW */.2
   \   0000A1   65D0         XRL     A,PSW
   \   0000A3   33           RLC     A
   \   0000A4   5011         JNC     ??SampleApp_HandleKeys_0
    589              {
    590                	dst_dev = device[sel_dev];
   \   0000A6   90....       MOV     DPTR,#sel_dev
   \   0000A9   12....       LCALL   ?Subroutine5 & 0xFFFF
    591              }
    592              
    593              
    594              
    595              /* This key sends the Flash Command is sent to Group 1.
    596               * This device will not receive the Flash Command from this
    597               * device (even if it belongs to group 1).
    598               */
    599              
    600          	
    601              
    602            }
   \                     ??CrossCallReturnLabel_2:
   \   0000AC   12....       LCALL   ??Subroutine29_0 & 0xFFFF
   \                     ??CrossCallReturnLabel_41:
   \   0000AF   90....       MOV     DPTR,#dst_dev
   \   0000B2   E8           MOV     A,R0
   \   0000B3   F0           MOVX    @DPTR,A
   \   0000B4   A3           INC     DPTR
   \   0000B5   E9           MOV     A,R1
   \   0000B6   F0           MOVX    @DPTR,A
    603          
    604            if ( keys & HAL_KEY_SW_6 )//key1
   \                     ??SampleApp_HandleKeys_0:
   \   0000B7   EE           MOV     A,R6
   \   0000B8   A2E5         MOV     C,0xE0 /* A   */.5
   \   0000BA   5071         JNC     ??SampleApp_HandleKeys_14
    605            {
    606              
    607              
    608          //    	#if defined(ZDO_COORDINATOR) //协调器收到"D1"后,返回"D1"给终端，让终端Led1也闪烁
    609              
    610              
    611              	/**********************************************\
    612              		
    613              		if(key_flag == 0)
    614          		{
    615          		 InitT1();
    616          		 flag = 1;
    617          		}
    618          		else
    619          		{
    620          		  InitT11();
    621          		  flag = 0;
    622          		}
    623              \***************************************************/
    624          			
    625          //	#else
    626          		
    627          //		SampleApp_SendFlashMessage( SAMPLEAPP_FLASH_DURATION, 1);
    628          		if(main_flag == 0)
   \   0000BC   90....       MOV     DPTR,#main_flag
   \   0000BF   12....       LCALL   ??Subroutine29_0 & 0xFFFF
   \                     ??CrossCallReturnLabel_42:
   \   0000C2   E8           MOV     A,R0
   \   0000C3   49           ORL     A,R1
   \   0000C4   90....       MOV     DPTR,#main_flag
   \   0000C7   7007         JNZ     ??SampleApp_HandleKeys_15
    629          		{
    630          		  main_flag = 1;
   \   0000C9   7401         MOV     A,#0x1
   \   0000CB   F0           MOVX    @DPTR,A
   \   0000CC   A3           INC     DPTR
   \   0000CD   E4           CLR     A
   \   0000CE   8045         SJMP    ??SampleApp_HandleKeys_16
    631          		}
    632          		else if(main_flag == 1)
   \                     ??SampleApp_HandleKeys_15:
   \   0000D0   E0           MOVX    A,@DPTR
   \   0000D1   6401         XRL     A,#0x1
   \   0000D3   7002         JNZ     ??SampleApp_HandleKeys_17
   \   0000D5   A3           INC     DPTR
   \   0000D6   E0           MOVX    A,@DPTR
   \                     ??SampleApp_HandleKeys_17:
   \   0000D7   90....       MOV     DPTR,#main_flag
   \   0000DA   7015         JNZ     ??SampleApp_HandleKeys_18
    633          		{
    634          		  main_flag = 2;
   \   0000DC   7402         MOV     A,#0x2
   \   0000DE   F0           MOVX    @DPTR,A
   \   0000DF   A3           INC     DPTR
   \   0000E0   E4           CLR     A
   \   0000E1   F0           MOVX    @DPTR,A
    635          		  SampleApp_SendBeepMessage(dst_dev, 1);
   \   0000E2                ; Setup parameters for call to function SampleApp_SendBeepMessage
   \   0000E2   7901         MOV     R1,#0x1
   \                     ??SampleApp_HandleKeys_19:
   \   0000E4   90....       MOV     DPTR,#dst_dev
   \   0000E7   E0           MOVX    A,@DPTR
   \   0000E8   FA           MOV     R2,A
   \   0000E9   A3           INC     DPTR
   \   0000EA   E0           MOVX    A,@DPTR
   \   0000EB   FB           MOV     R3,A
   \   0000EC   12....       LCALL   ??SampleApp_SendBeepMessage?relay
   \   0000EF   8025         SJMP    ??SampleApp_HandleKeys_20
    636          		}
    637          		else if(main_flag == 2)
   \                     ??SampleApp_HandleKeys_18:
   \   0000F1   E0           MOVX    A,@DPTR
   \   0000F2   6402         XRL     A,#0x2
   \   0000F4   7002         JNZ     ??SampleApp_HandleKeys_21
   \   0000F6   A3           INC     DPTR
   \   0000F7   E0           MOVX    A,@DPTR
   \                     ??SampleApp_HandleKeys_21:
   \   0000F8   90....       MOV     DPTR,#main_flag
   \   0000FB   7009         JNZ     ??SampleApp_HandleKeys_22
    638          		{
    639          		  main_flag = 3;
   \   0000FD   7403         MOV     A,#0x3
   \   0000FF   F0           MOVX    @DPTR,A
   \   000100   A3           INC     DPTR
   \   000101   E4           CLR     A
   \   000102   F0           MOVX    @DPTR,A
    640          		  SampleApp_SendBeepMessage(dst_dev, 0);
   \   000103                ; Setup parameters for call to function SampleApp_SendBeepMessage
   \   000103   F9           MOV     R1,A
   \   000104   80DE         SJMP    ??SampleApp_HandleKeys_19
    641          		}
    642          		else if(main_flag == 3)
   \                     ??SampleApp_HandleKeys_22:
   \   000106   E0           MOVX    A,@DPTR
   \   000107   6403         XRL     A,#0x3
   \   000109   7002         JNZ     ??SampleApp_HandleKeys_23
   \   00010B   A3           INC     DPTR
   \   00010C   E0           MOVX    A,@DPTR
   \                     ??SampleApp_HandleKeys_23:
   \   00010D   7007         JNZ     ??SampleApp_HandleKeys_20
    643          		{
    644          		  main_flag = 0;
   \   00010F   90....       MOV     DPTR,#main_flag
   \   000112   E4           CLR     A
   \   000113   F0           MOVX    @DPTR,A
   \   000114   A3           INC     DPTR
   \                     ??SampleApp_HandleKeys_16:
   \   000115   F0           MOVX    @DPTR,A
    645          		}
    646          		
    647          		
    648          	#if defined ( LCD_SUPPORTED )
    649          		HalLcdWriteStringValue("model:", main_flag, 10, 5);
   \                     ??SampleApp_HandleKeys_20:
   \   000116                ; Setup parameters for call to function HalLcdWriteStringValue
   \   000116   90....       MOV     DPTR,#main_flag
   \   000119   12....       LCALL   ?Subroutine7 & 0xFFFF
    650          	  	
    651          	#endif
    652          //	#endif
    653              
    654              
    655              
    656              /* The Flashr Command is sent to Group 1.
    657               * This key toggles this device in and out of group 1.
    658               * If this device doesn't belong to group 1, this application
    659               * will not receive the Flash command sent to group 1.
    660               */
    661              
    662              
    663              /***************************************************************\
    664                
    665              aps_Group_t *grp;
    666              grp = aps_FindGroup( SAMPLEAPP_ENDPOINT, SAMPLEAPP_FLASH_GROUP );
    667              if ( grp )
    668              {
    669                // Remove from the group
    670                aps_RemoveGroup( SAMPLEAPP_ENDPOINT, SAMPLEAPP_FLASH_GROUP );
    671              }
    672              else
    673              {
    674                // Add to the flash group
    675                aps_AddGroup( SAMPLEAPP_ENDPOINT, &SampleApp_Group );
    676              }
    677              \****************************************************************/
    678              
    679            }
   \                     ??CrossCallReturnLabel_8:
   \   00011C   12....       LCALL   ?PUSH_XSTACK_I_FOUR
   \   00011F   7C05         MOV     R4,#0x5
   \   000121   790A         MOV     R1,#0xa
   \   000123   7A..         MOV     R2,#`?<Constant "model:">` & 0xff
   \   000125   7B..         MOV     R3,#(`?<Constant "model:">` >> 8) & 0xff
   \   000127   12....       LCALL   ??Subroutine31_0 & 0xFFFF
   \                     ??CrossCallReturnLabel_57:
   \   00012A   12....       LCALL   ?DEALLOC_XSTACK8
    680          }
   \                     ??SampleApp_HandleKeys_14:
   \   00012D   02....       LJMP    ??Subroutine26_0 & 0xFFFF

   \                                 In  segment BANKED_CODE, align 1, keep-with-next
   \                     ?Subroutine7:
   \   000000   12....       LCALL   ?Subroutine20 & 0xFFFF
   \                     ??CrossCallReturnLabel_50:
   \   000003   12....       LCALL   ?Subroutine24 & 0xFFFF
   \                     ??CrossCallReturnLabel_30:
   \   000006   22           RET

   \                                 In  segment BANKED_CODE, align 1, keep-with-next
   \                     ?Subroutine24:
   \   000000   33           RLC     A
   \   000001   95E0         SUBB    A,0xE0 /* A   */
   \   000003   F5..         MOV     ?V0 + 2,A
   \   000005   F5..         MOV     ?V0 + 3,A
   \   000007   78..         MOV     R0,#?V0 + 0
   \   000009   22           RET

   \                                 In  segment BANKED_CODE, align 1, keep-with-next
   \                     ??Subroutine27_0:
   \   000000   33           RLC     A
   \   000001   F9           MOV     R1,A
   \   000002   74..         MOV     A,#device & 0xff
   \   000004   28           ADD     A,R0
   \   000005   F582         MOV     DPL,A
   \   000007   74..         MOV     A,#(device >> 8) & 0xff
   \   000009   39           ADDC    A,R1
   \   00000A   F583         MOV     DPH,A
   \   00000C   22           RET

   \                                 In  segment BANKED_CODE, align 1, keep-with-next
   \                     ?Subroutine10:
   \   000000   90....       MOV     DPTR,#device_num
   \   000003                REQUIRE ??Subroutine29_0
   \   000003                ; // Fall through to label ??Subroutine29_0

   \                                 In  segment BANKED_CODE, align 1, keep-with-next
   \                     ??Subroutine29_0:
   \   000000   E0           MOVX    A,@DPTR
   \   000001   F8           MOV     R0,A
   \   000002   A3           INC     DPTR
   \   000003   E0           MOVX    A,@DPTR
   \   000004   F9           MOV     R1,A
   \   000005   22           RET

   \                                 In  segment BANKED_CODE, align 1, keep-with-next
   \                     ?Subroutine8:
   \   000000   12....       LCALL   ?Subroutine20 & 0xFFFF
   \                     ??CrossCallReturnLabel_51:
   \   000003   78..         MOV     R0,#?V0 + 0
   \   000005   22           RET

   \                                 In  segment BANKED_CODE, align 1, keep-with-next
   \                     ??Subroutine31_0:
   \   000000   12....       LCALL   ??HalLcdWriteStringValue?relay
   \   000003   7404         MOV     A,#0x4
   \   000005   22           RET

   \                                 In  segment BANKED_CODE, align 1, keep-with-next
   \                     ?Subroutine5:
   \   000000   E0           MOVX    A,@DPTR
   \   000001   F8           MOV     R0,A
   \   000002   A3           INC     DPTR
   \   000003   E0           MOVX    A,@DPTR
   \   000004   F9           MOV     R1,A
   \   000005   E8           MOV     A,R0
   \   000006   C3           CLR     C
   \   000007   33           RLC     A
   \   000008   F8           MOV     R0,A
   \   000009   E9           MOV     A,R1
   \   00000A   12....       LCALL   ??Subroutine27_0 & 0xFFFF
   \                     ??CrossCallReturnLabel_33:
   \   00000D   22           RET

   \                                 In  segment BANKED_CODE, align 1, keep-with-next
   \                     ?Subroutine20:
   \   000000   E0           MOVX    A,@DPTR
   \   000001   F5..         MOV     ?V0 + 0,A
   \   000003   A3           INC     DPTR
   \   000004   E0           MOVX    A,@DPTR
   \   000005   F5..         MOV     ?V0 + 1,A
   \   000007   22           RET
    681          
    682          /*********************************************************************
    683           * LOCAL FUNCTIONS
    684           */
    685          
    686          /*********************************************************************
    687           * @fn      SampleApp_MessageMSGCB
    688           *
    689           * @brief   Data message processor callback.  This function processes
    690           *          any incoming data - probably from other devices.  So, based
    691           *          on cluster ID, perform the intended action.
    692           *
    693           * @param   none
    694           *
    695           * @return  none
    696           */
    697          //接收数据，参数为接收到的数据

   \                                 In  segment BANKED_CODE, align 1, keep-with-next
    698          void SampleApp_MessageMSGCB( afIncomingMSGPacket_t *pkt )
   \                     SampleApp_MessageMSGCB:
    699          {
   \   000000   74F1         MOV     A,#-0xf
   \   000002   12....       LCALL   ?BANKED_ENTER_XDATA
   \   000005                ; Saved register size: 15
   \   000005                ; Auto size: 3
   \   000005   74FD         MOV     A,#-0x3
   \   000007   12....       LCALL   ?ALLOC_XSTACK8
   \   00000A   EA           MOV     A,R2
   \   00000B   FE           MOV     R6,A
   \   00000C   EB           MOV     A,R3
   \   00000D   FF           MOV     R7,A
    700            char i;
    701            byte buf[3];
    702            
    703          //  HalLcdWriteStringValue("GROUP:", group, 10, 4);
    704          
    705            switch ( pkt->clusterId ) //判断簇ID
   \   00000E   8E82         MOV     DPL,R6
   \   000010   8F83         MOV     DPH,R7
   \   000012   A3           INC     DPTR
   \   000013   A3           INC     DPTR
   \   000014   A3           INC     DPTR
   \   000015   A3           INC     DPTR
   \   000016   12....       LCALL   ?Subroutine8 & 0xFFFF
   \                     ??CrossCallReturnLabel_10:
   \   000019   12....       LCALL   ?US_SWITCH_DENSE
   \                     `?<Jumptable for SampleApp_MessageMSGCB>_0`:
   \   00001C   0100         DW        1
   \   00001E   02           DB        2
   \   00001F   ....         DW        ??SampleApp_MessageMSGCB_0
   \   000021   ....         DW        ??SampleApp_MessageMSGCB_1
   \   000023   ....         DW        ??SampleApp_MessageMSGCB_0
   \   000025   ....         DW        ??SampleApp_MessageMSGCB_2
    706            {
    707              case SAMPLEAPP_PERIODIC_CLUSTERID: //收到广播数据
    708                if(beep_flag == 1)
   \                     ??SampleApp_MessageMSGCB_1:
   \   000027   90....       MOV     DPTR,#beep_flag
   \   00002A   E0           MOVX    A,@DPTR
   \   00002B   6401         XRL     A,#0x1
   \   00002D   7002         JNZ     ??SampleApp_MessageMSGCB_3
   \   00002F   A3           INC     DPTR
   \   000030   E0           MOVX    A,@DPTR
   \                     ??SampleApp_MessageMSGCB_3:
   \   000031   7003         JNZ     $+5
   \   000033   02....       LJMP    ??SampleApp_MessageMSGCB_0 & 0xFFFF
    709          	break;
    710                osal_memset(buf, 0 , 3);
   \   000036                ; Setup parameters for call to function osal_memset
   \   000036   7C03         MOV     R4,#0x3
   \   000038   7D00         MOV     R5,#0x0
   \   00003A   7900         MOV     R1,#0x0
   \   00003C   85..82       MOV     DPL,?XSP + 0
   \   00003F   85..83       MOV     DPH,?XSP + 1
   \   000042   AA82         MOV     R2,DPL
   \   000044   AB83         MOV     R3,DPH
   \   000046   12....       LCALL   ??osal_memset?relay
    711                osal_memcpy(buf, pkt->cmd.Data, 3); //复制数据到缓冲区中
   \   000049                ; Setup parameters for call to function osal_memcpy
   \   000049   EE           MOV     A,R6
   \   00004A   2422         ADD     A,#0x22
   \   00004C   12....       LCALL   ?Subroutine9 & 0xFFFF
   \                     ??CrossCallReturnLabel_12:
   \   00004F   12....       LCALL   ?PUSH_XSTACK_I_THREE
   \   000052   7C03         MOV     R4,#0x3
   \   000054   7D00         MOV     R5,#0x0
   \   000056   EC           MOV     A,R4
   \   000057   12....       LCALL   ?XSTACK_DISP0_8
   \   00005A   12....       LCALL   ?Subroutine16 & 0xFFFF
   \                     ??CrossCallReturnLabel_36:
   \   00005D   12....       LCALL   ?DEALLOC_XSTACK8
    712                
    713                if(buf[0]=='D' && buf[1]=='1')      //判断收到的数据是否为"D1"         
   \   000060   85..82       MOV     DPL,?XSP + 0
   \   000063   85..83       MOV     DPH,?XSP + 1
   \   000066   E0           MOVX    A,@DPTR
   \   000067   6444         XRL     A,#0x44
   \   000069   6003         JZ      $+5
   \   00006B   02....       LJMP    ??SampleApp_MessageMSGCB_4 & 0xFFFF
   \   00006E   7401         MOV     A,#0x1
   \   000070   12....       LCALL   ?XSTACK_DISP0_8
   \   000073   E0           MOVX    A,@DPTR
   \   000074   6431         XRL     A,#0x31
   \   000076   6003         JZ      $+5
   \   000078   02....       LJMP    ??SampleApp_MessageMSGCB_5 & 0xFFFF
    714                {
    715          	
    716          //	if(group != buf[2])
    717          //	  break;
    718          	
    719          #if defined ( LCD_SUPPORTED )
    720          	HalLcdWriteStringValue("rssi:", abs(pkt->rssi), 10, 6);
   \   00007B                ; Setup parameters for call to function HalLcdWriteStringValue
   \   00007B                ; Setup parameters for call to function abs
   \   00007B   12....       LCALL   ?Subroutine14 & 0xFFFF
   \                     ??CrossCallReturnLabel_73:
   \   00007E   FA           MOV     R2,A
   \   00007F   33           RLC     A
   \   000080   95E0         SUBB    A,0xE0 /* A   */
   \   000082   FB           MOV     R3,A
   \   000083   12....       LCALL   ??abs?relay
   \   000086   8A..         MOV     ?V0 + 0,R2
   \   000088   EB           MOV     A,R3
   \   000089   F5..         MOV     ?V0 + 1,A
   \   00008B   12....       LCALL   ?Subroutine24 & 0xFFFF
   \                     ??CrossCallReturnLabel_29:
   \   00008E   12....       LCALL   ?PUSH_XSTACK_I_FOUR
   \   000091   7C06         MOV     R4,#0x6
   \   000093   790A         MOV     R1,#0xa
   \   000095   7A..         MOV     R2,#`?<Constant "rssi:">` & 0xff
   \   000097   7B..         MOV     R3,#(`?<Constant "rssi:">` >> 8) & 0xff
   \   000099   12....       LCALL   ??Subroutine31_0 & 0xFFFF
   \                     ??CrossCallReturnLabel_58:
   \   00009C   12....       LCALL   ?DEALLOC_XSTACK8
    721          	HalLcdWriteStringValue("src addr:", pkt->srcAddr.addr.shortAddr, 16, 5);
   \   00009F                ; Setup parameters for call to function HalLcdWriteStringValue
   \   00009F   12....       LCALL   ?Subroutine4 & 0xFFFF
   \                     ??CrossCallReturnLabel_47:
   \   0000A2   12....       LCALL   ?PUSH_XSTACK_I_FOUR
   \   0000A5   7C05         MOV     R4,#0x5
   \   0000A7   7910         MOV     R1,#0x10
   \   0000A9   7A..         MOV     R2,#`?<Constant "src addr:">` & 0xff
   \   0000AB   7B..         MOV     R3,#(`?<Constant "src addr:">` >> 8) & 0xff
   \   0000AD   12....       LCALL   ??Subroutine31_0 & 0xFFFF
   \                     ??CrossCallReturnLabel_59:
   \   0000B0   12....       LCALL   ?DEALLOC_XSTACK8
    722          #endif
    723          	
    724          	
    725          	if(main_flag == 0)                	//model 0
   \   0000B3   90....       MOV     DPTR,#main_flag
   \   0000B6   12....       LCALL   ??Subroutine29_0 & 0xFFFF
   \                     ??CrossCallReturnLabel_43:
   \   0000B9   E8           MOV     A,R0
   \   0000BA   49           ORL     A,R1
   \   0000BB   7009         JNZ     ??SampleApp_MessageMSGCB_6
    726          	{
    727          	  	beep0();
   \                     ??SampleApp_MessageMSGCB_7:
   \   0000BD   75DB00       MOV     0xdb,#0x0
   \   0000C0   75DA00       MOV     0xda,#0x0
    728          		
    729          	}
   \   0000C3   02....       LJMP    ??SampleApp_MessageMSGCB_0 & 0xFFFF
    730          	else if(main_flag == 1)
   \                     ??SampleApp_MessageMSGCB_6:
   \   0000C6   90....       MOV     DPTR,#main_flag
   \   0000C9   E0           MOVX    A,@DPTR
   \   0000CA   6401         XRL     A,#0x1
   \   0000CC   7002         JNZ     ??SampleApp_MessageMSGCB_8
   \   0000CE   A3           INC     DPTR
   \   0000CF   E0           MOVX    A,@DPTR
   \                     ??SampleApp_MessageMSGCB_8:
   \   0000D0   6003         JZ      $+5
   \   0000D2   02....       LJMP    ??SampleApp_MessageMSGCB_0 & 0xFFFF
    731          	{
    732          	  	for(i = 0; i <= device_num;i ++)
   \   0000D5   75..00       MOV     ?V0 + 4,#0x0
   \   0000D8   8023         SJMP    ??SampleApp_MessageMSGCB_9
    733          		{
    734          		  if(pkt->srcAddr.addr.shortAddr == device[i])
   \                     ??SampleApp_MessageMSGCB_10:
   \   0000DA   8E82         MOV     DPL,R6
   \   0000DC   8F83         MOV     DPH,R7
   \   0000DE   A3           INC     DPTR
   \   0000DF   A3           INC     DPTR
   \   0000E0   A3           INC     DPTR
   \   0000E1   A3           INC     DPTR
   \   0000E2   A3           INC     DPTR
   \   0000E3   A3           INC     DPTR
   \   0000E4   E0           MOVX    A,@DPTR
   \   0000E5   FA           MOV     R2,A
   \   0000E6   A3           INC     DPTR
   \   0000E7   E0           MOVX    A,@DPTR
   \   0000E8   FB           MOV     R3,A
   \   0000E9   12....       LCALL   ?Subroutine17 & 0xFFFF
   \                     ??CrossCallReturnLabel_20:
   \   0000EC   7003         JNZ     ??SampleApp_MessageMSGCB_11
   \   0000EE   A3           INC     DPTR
   \   0000EF   E0           MOVX    A,@DPTR
   \   0000F0   6B           XRL     A,R3
   \                     ??SampleApp_MessageMSGCB_11:
   \   0000F1   7008         JNZ     ??SampleApp_MessageMSGCB_12
    735          		  {
    736          		    online[i]++;
   \   0000F3   12....       LCALL   ?Subroutine18 & 0xFFFF
    737          		  }
    738          		}
   \                     ??CrossCallReturnLabel_22:
   \   0000F6   12....       LCALL   ??Subroutine34_0 & 0xFFFF
   \                     ??CrossCallReturnLabel_69:
   \   0000F9   04           INC     A
   \   0000FA   F0           MOVX    @DPTR,A
   \                     ??SampleApp_MessageMSGCB_12:
   \   0000FB   05..         INC     ?V0 + 4
   \                     ??SampleApp_MessageMSGCB_9:
   \   0000FD   90....       MOV     DPTR,#device_num
   \   000100   85....       MOV     ?V0 + 0,?V0 + 4
   \   000103   12....       LCALL   ?Subroutine6 & 0xFFFF
   \                     ??CrossCallReturnLabel_4:
   \   000106   50D2         JNC     ??SampleApp_MessageMSGCB_10
    739          		    
    740          		    
    741          		    
    742          	  	if(pkt->rssi < -80)
   \   000108   12....       LCALL   ?Subroutine14 & 0xFFFF
   \                     ??CrossCallReturnLabel_74:
   \   00010B   C3           CLR     C
   \   00010C   94B0         SUBB    A,#-0x50
   \   00010E   A2D2         MOV     C,0xD0 /* PSW */.2
   \   000110   65D0         XRL     A,PSW
   \   000112   33           RLC     A
   \   000113   5021         JNC     ??SampleApp_MessageMSGCB_13
    743          		{
    744          		  if(count < 3)
   \   000115   90....       MOV     DPTR,#count
   \   000118   C3           CLR     C
   \   000119   E0           MOVX    A,@DPTR
   \   00011A   9403         SUBB    A,#0x3
   \   00011C   12....       LCALL   ?Subroutine21 & 0xFFFF
   \                     ??CrossCallReturnLabel_25:
   \   00011F   5009         JNC     ??SampleApp_MessageMSGCB_14
    745          		    	count++;
   \   000121   90....       MOV     DPTR,#count
   \   000124   12....       LCALL   ?Subroutine22 & 0xFFFF
   \                     ??CrossCallReturnLabel_27:
   \   000127   02....       LJMP    ??SampleApp_MessageMSGCB_15 & 0xFFFF
    746          		  else
    747          		  {
    748          		    	beep1();
   \                     ??SampleApp_MessageMSGCB_14:
   \   00012A   75DB00       MOV     0xdb,#0x0
   \   00012D   75DAFF       MOV     0xda,#-0x1
    749          			count = 0;
   \   000130   90....       MOV     DPTR,#count
   \   000133   02....       LJMP    ??SampleApp_MessageMSGCB_16 & 0xFFFF
    750          		  }
    751          		}
    752          		else if(pkt->rssi > -66)
   \                     ??SampleApp_MessageMSGCB_13:
   \   000136   E0           MOVX    A,@DPTR
   \   000137   C3           CLR     C
   \   000138   94BF         SUBB    A,#-0x41
   \   00013A   A2D2         MOV     C,0xD0 /* PSW */.2
   \   00013C   65D0         XRL     A,PSW
   \   00013E   33           RLC     A
   \   00013F   90....       MOV     DPTR,#count
   \   000142   E4           CLR     A
   \   000143   F0           MOVX    @DPTR,A
   \   000144   A3           INC     DPTR
   \   000145   4004         JC      ??SampleApp_MessageMSGCB_17
    753          		{
    754          		  	count = 0;
   \   000147   F0           MOVX    @DPTR,A
    755          		  	beep0();
   \   000148   02....       LJMP    ??SampleApp_MessageMSGCB_7 & 0xFFFF
    756          		}
    757          		else
    758          			count = 0;
   \                     ??SampleApp_MessageMSGCB_17:
   \   00014B   02....       LJMP    ??SampleApp_MessageMSGCB_15 & 0xFFFF
    759          	}
    760          	else
    761          	{
    762          	  	
    763          	}
    764          	  
    765          	  
    766                }
    767                else if(buf[0] == 0x00)
   \                     ??SampleApp_MessageMSGCB_4:
   \   00014E   E0           MOVX    A,@DPTR
   \   00014F   6003         JZ      $+5
   \   000151   02....       LJMP    ??SampleApp_MessageMSGCB_5 & 0xFFFF
    768                {
    769          		osal_memcpy(device, pkt->cmd.Data, pkt->cmd.DataLength);
   \   000154   EE           MOV     A,R6
   \   000155   2420         ADD     A,#0x20
   \   000157   F8           MOV     R0,A
   \   000158   EF           MOV     A,R7
   \   000159   3400         ADDC    A,#0x0
   \   00015B   F9           MOV     R1,A
   \   00015C   88..         MOV     ?V0 + 0,R0
   \   00015E   89..         MOV     ?V0 + 1,R1
   \   000160                ; Setup parameters for call to function osal_memcpy
   \   000160   EE           MOV     A,R6
   \   000161   2422         ADD     A,#0x22
   \   000163   12....       LCALL   ??Subroutine33_0 & 0xFFFF
   \                     ??CrossCallReturnLabel_71:
   \   000166   F5..         MOV     ?V0 + 4,A
   \   000168   A3           INC     DPTR
   \   000169   E0           MOVX    A,@DPTR
   \   00016A   F5..         MOV     ?V0 + 5,A
   \   00016C   75..00       MOV     ?V0 + 6,#0x0
   \   00016F   78..         MOV     R0,#?V0 + 4
   \   000171   12....       LCALL   ?PUSH_XSTACK_I_THREE
   \   000174   85..82       MOV     DPL,?V0 + 0
   \   000177   8983         MOV     DPH,R1
   \   000179   12....       LCALL   ?Subroutine12 & 0xFFFF
   \                     ??CrossCallReturnLabel_16:
   \   00017C   12....       LCALL   ??Subroutine28_0 & 0xFFFF
   \                     ??CrossCallReturnLabel_40:
   \   00017F   12....       LCALL   ?DEALLOC_XSTACK8
    770          		device_num = pkt->cmd.DataLength/2;
   \   000182   85..82       MOV     DPL,?V0 + 0
   \   000185   85..83       MOV     DPH,?V0 + 1
   \   000188   E0           MOVX    A,@DPTR
   \   000189   F8           MOV     R0,A
   \   00018A   A3           INC     DPTR
   \   00018B   E0           MOVX    A,@DPTR
   \   00018C   C3           CLR     C
   \   00018D   13           RRC     A
   \   00018E   F9           MOV     R1,A
   \   00018F   E8           MOV     A,R0
   \   000190   13           RRC     A
   \   000191   90....       MOV     DPTR,#device_num
   \   000194   F0           MOVX    @DPTR,A
   \   000195   A3           INC     DPTR
   \   000196   E9           MOV     A,R1
   \   000197   12....       LCALL   ?Subroutine3 & 0xFFFF
    771          		
    772          		#if defined ( LCD_SUPPORTED )
    773          		HalLcdWriteStringValue("total device:", device_num, 10, 4);
   \                     ??CrossCallReturnLabel_0:
   \   00019A   33           RLC     A
   \   00019B   95E0         SUBB    A,0xE0 /* A   */
   \   00019D   F5..         MOV     ?V0 + 3,A
   \   00019F   78..         MOV     R0,#?V0 + 0
   \   0001A1   12....       LCALL   ?PUSH_XSTACK_I_FOUR
   \   0001A4   7C04         MOV     R4,#0x4
   \   0001A6   790A         MOV     R1,#0xa
   \   0001A8   7A..         MOV     R2,#`?<Constant "total device:">` & 0xff
   \   0001AA   7B..         MOV     R3,#(`?<Constant "total device:">` >> 8) & 0xff
   \   0001AC   12....       LCALL   ??Subroutine31_0 & 0xFFFF
   \                     ??CrossCallReturnLabel_60:
   \   0001AF   12....       LCALL   ?DEALLOC_XSTACK8
    774          		#endif
    775          		
    776          		for(i = 0 ;i < device_num; i++)
   \   0001B2   75..00       MOV     ?V0 + 4,#0x0
   \                     ??SampleApp_MessageMSGCB_18:
   \   0001B5   85....       MOV     ?V0 + 0,?V0 + 4
   \   0001B8   12....       LCALL   ?Subroutine10 & 0xFFFF
   \                     ??CrossCallReturnLabel_45:
   \   0001BB   C3           CLR     C
   \   0001BC   E5..         MOV     A,?V0 + 0
   \   0001BE   98           SUBB    A,R0
   \   0001BF   E4           CLR     A
   \   0001C0   99           SUBB    A,R1
   \   0001C1   A2D2         MOV     C,0xD0 /* PSW */.2
   \   0001C3   65D0         XRL     A,PSW
   \   0001C5   33           RLC     A
   \   0001C6   4003         JC      $+5
   \   0001C8   02....       LJMP    ??SampleApp_MessageMSGCB_0 & 0xFFFF
    777          		{
    778          		  if(device[i] == NLME_GetShortAddr())
   \   0001CB                ; Setup parameters for call to function NLME_GetShortAddr
   \   0001CB   12....       LCALL   ??NLME_GetShortAddr?relay
   \   0001CE   12....       LCALL   ?Subroutine17 & 0xFFFF
   \                     ??CrossCallReturnLabel_21:
   \   0001D1   7003         JNZ     ??SampleApp_MessageMSGCB_19
   \   0001D3   A3           INC     DPTR
   \   0001D4   E0           MOVX    A,@DPTR
   \   0001D5   6B           XRL     A,R3
   \                     ??SampleApp_MessageMSGCB_19:
   \   0001D6   7016         JNZ     ??SampleApp_MessageMSGCB_20
    779          		    	#if defined ( LCD_SUPPORTED )
    780          		  	HalLcdWriteStringValue("dev_NO.", i, 10, 2);
   \   0001D8                ; Setup parameters for call to function HalLcdWriteStringValue
   \   0001D8   E4           CLR     A
   \   0001D9   F5..         MOV     ?V0 + 1,A
   \   0001DB   78..         MOV     R0,#?V0 + 0
   \   0001DD   12....       LCALL   ?PUSH_XSTACK_I_FOUR
   \   0001E0   7C02         MOV     R4,#0x2
   \   0001E2   790A         MOV     R1,#0xa
   \   0001E4   7A..         MOV     R2,#`?<Constant "dev_NO.">` & 0xff
   \   0001E6   7B..         MOV     R3,#(`?<Constant "dev_NO.">` >> 8) & 0xff
   \   0001E8   12....       LCALL   ??Subroutine31_0 & 0xFFFF
    781          		  	#endif
    782          		}
   \                     ??CrossCallReturnLabel_61:
   \   0001EB   12....       LCALL   ?DEALLOC_XSTACK8
   \                     ??SampleApp_MessageMSGCB_20:
   \   0001EE   05..         INC     ?V0 + 4
   \   0001F0   80C3         SJMP    ??SampleApp_MessageMSGCB_18
    783            
    784                }
    785                else
    786                {
    787                    	HalLedSet(HAL_LED_1, HAL_LED_MODE_ON);                   
   \                     ??SampleApp_MessageMSGCB_5:
   \   0001F2                ; Setup parameters for call to function HalLedSet
   \   0001F2   7A01         MOV     R2,#0x1
   \   0001F4   7901         MOV     R1,#0x1
   \   0001F6   12....       LCALL   ??HalLedSet?relay
   \   0001F9   806C         SJMP    ??SampleApp_MessageMSGCB_0
    788                }
    789                break;
    790          
    791              case SAMPLEAPP_FLASH_CLUSTERID: //收到组播数据
    792                
    793                break;
    794                
    795              case SAMPLEAPP_SINGLE_CLUSTERID:
    796                #if defined ( LCD_SUPPORTED )
    797                HalLcdWriteStringValue("beep info:", pkt->srcAddr.addr.shortAddr, 16, 5);
   \                     ??SampleApp_MessageMSGCB_2:
   \   0001FB                ; Setup parameters for call to function HalLcdWriteStringValue
   \   0001FB   12....       LCALL   ?Subroutine4 & 0xFFFF
   \                     ??CrossCallReturnLabel_48:
   \   0001FE   12....       LCALL   ?PUSH_XSTACK_I_FOUR
   \   000201   7C05         MOV     R4,#0x5
   \   000203   12....       LCALL   ?Subroutine13 & 0xFFFF
   \                     ??CrossCallReturnLabel_54:
   \   000206   12....       LCALL   ?DEALLOC_XSTACK8
    798                #endif
    799                osal_memset(buf, 0 , 3);
   \   000209                ; Setup parameters for call to function osal_memset
   \   000209   7C03         MOV     R4,#0x3
   \   00020B   7D00         MOV     R5,#0x0
   \   00020D   7900         MOV     R1,#0x0
   \   00020F   85..82       MOV     DPL,?XSP + 0
   \   000212   85..83       MOV     DPH,?XSP + 1
   \   000215   AA82         MOV     R2,DPL
   \   000217   AB83         MOV     R3,DPH
   \   000219   12....       LCALL   ??osal_memset?relay
    800                osal_memcpy(buf, pkt->cmd.Data, 3); //复制数据到缓冲区中
   \   00021C                ; Setup parameters for call to function osal_memcpy
   \   00021C   EE           MOV     A,R6
   \   00021D   2422         ADD     A,#0x22
   \   00021F   F582         MOV     DPL,A
   \   000221   EF           MOV     A,R7
   \   000222   3400         ADDC    A,#0x0
   \   000224   F583         MOV     DPH,A
   \   000226   12....       LCALL   ?Subroutine8 & 0xFFFF
   \                     ??CrossCallReturnLabel_11:
   \   000229   12....       LCALL   ?PUSH_XSTACK_I_THREE
   \   00022C   7C03         MOV     R4,#0x3
   \   00022E   7D00         MOV     R5,#0x0
   \   000230   EC           MOV     A,R4
   \   000231   12....       LCALL   ?XSTACK_DISP0_8
   \   000234   12....       LCALL   ?Subroutine16 & 0xFFFF
   \                     ??CrossCallReturnLabel_37:
   \   000237   12....       LCALL   ?DEALLOC_XSTACK8
    801                
    802                if(buf[0]=='B' && buf[1]=='P') 
   \   00023A   85..82       MOV     DPL,?XSP + 0
   \   00023D   85..83       MOV     DPH,?XSP + 1
   \   000240   E0           MOVX    A,@DPTR
   \   000241   6442         XRL     A,#0x42
   \   000243   7022         JNZ     ??SampleApp_MessageMSGCB_0
   \   000245   7401         MOV     A,#0x1
   \   000247   12....       LCALL   ?XSTACK_DISP0_8
   \   00024A   E0           MOVX    A,@DPTR
   \   00024B   6450         XRL     A,#0x50
   \   00024D   7018         JNZ     ??SampleApp_MessageMSGCB_0
    803                {
    804          	if(buf[2] == 1)
   \   00024F   7402         MOV     A,#0x2
   \   000251   12....       LCALL   ?XSTACK_DISP0_8
   \   000254   E0           MOVX    A,@DPTR
   \   000255   6401         XRL     A,#0x1
   \   000257   90....       MOV     DPTR,#beep_flag
   \   00025A   7007         JNZ     ??SampleApp_MessageMSGCB_16
    805          	  beep_flag = 1;
   \   00025C   7401         MOV     A,#0x1
   \   00025E   F0           MOVX    @DPTR,A
   \   00025F   A3           INC     DPTR
   \   000260   E4           CLR     A
   \   000261   8003         SJMP    ??SampleApp_MessageMSGCB_15
    806          	else
    807          	  beep_flag = 0;
   \                     ??SampleApp_MessageMSGCB_16:
   \   000263   E4           CLR     A
   \   000264   F0           MOVX    @DPTR,A
   \   000265   A3           INC     DPTR
   \                     ??SampleApp_MessageMSGCB_15:
   \   000266   F0           MOVX    @DPTR,A
    808                }
    809          	
    810            }
    811          }
   \                     ??SampleApp_MessageMSGCB_0:
   \   000267   7403         MOV     A,#0x3
   \   000269   12....       LCALL   ?DEALLOC_XSTACK8
   \   00026C   7F07         MOV     R7,#0x7
   \   00026E   02....       LJMP    ?BANKED_LEAVE_XDATA
   \   000271                REQUIRE T1CC0H
   \   000271                REQUIRE T1CC0L

   \                                 In  segment BANKED_CODE, align 1, keep-with-next
   \                     ?Subroutine17:
   \   000000   E5..         MOV     A,?V0 + 4
   \   000002   12....       LCALL   ?Subroutine23 & 0xFFFF
   \                     ??CrossCallReturnLabel_35:
   \   000005   E0           MOVX    A,@DPTR
   \   000006   6A           XRL     A,R2
   \   000007   22           RET

   \                                 In  segment BANKED_CODE, align 1, keep-with-next
   \                     ?Subroutine23:
   \   000000   C3           CLR     C
   \   000001   33           RLC     A
   \   000002   F8           MOV     R0,A
   \   000003   E4           CLR     A
   \   000004                REQUIRE ??Subroutine27_0
   \   000004                ; // Fall through to label ??Subroutine27_0

   \                                 In  segment BANKED_CODE, align 1, keep-with-next
   \                     ?Subroutine16:
   \   000000   AA82         MOV     R2,DPL
   \   000002   AB83         MOV     R3,DPH
   \   000004                REQUIRE ??Subroutine28_0
   \   000004                ; // Fall through to label ??Subroutine28_0

   \                                 In  segment BANKED_CODE, align 1, keep-with-next
   \                     ?Subroutine4:
   \   000000   8E82         MOV     DPL,R6
   \   000002   8F83         MOV     DPH,R7
   \   000004   A3           INC     DPTR
   \   000005   A3           INC     DPTR
   \   000006   A3           INC     DPTR
   \   000007   A3           INC     DPTR
   \   000008   A3           INC     DPTR
   \   000009   A3           INC     DPTR
   \   00000A                REQUIRE ??Subroutine30_0
   \   00000A                ; // Fall through to label ??Subroutine30_0

   \                                 In  segment BANKED_CODE, align 1, keep-with-next
   \                     ??Subroutine30_0:
   \   000000   12....       LCALL   ?Subroutine20 & 0xFFFF
   \                     ??CrossCallReturnLabel_53:
   \   000003   E4           CLR     A
   \   000004   F5..         MOV     ?V0 + 2,A
   \   000006   F5..         MOV     ?V0 + 3,A
   \   000008   78..         MOV     R0,#?V0 + 0
   \   00000A   22           RET

   \                                 In  segment BANKED_CODE, align 1, keep-with-next
   \                     ?Subroutine13:
   \   000000   7910         MOV     R1,#0x10
   \   000002   7A..         MOV     R2,#`?<Constant "beep info:">` & 0xff
   \   000004   7B..         MOV     R3,#(`?<Constant "beep info:">` >> 8) & 0xff
   \   000006                REQUIRE ??Subroutine31_0
   \   000006                ; // Fall through to label ??Subroutine31_0

   \                                 In  segment BANKED_CODE, align 1, keep-with-next
   \                     ?Subroutine12:
   \   000000   E0           MOVX    A,@DPTR
   \   000001   FC           MOV     R4,A
   \   000002   A3           INC     DPTR
   \   000003   E0           MOVX    A,@DPTR
   \   000004   FD           MOV     R5,A
   \   000005   7A..         MOV     R2,#device & 0xff
   \   000007   7B..         MOV     R3,#(device >> 8) & 0xff
   \   000009   22           RET

   \                                 In  segment BANKED_CODE, align 1, keep-with-next
   \                     ?Subroutine9:
   \   000000   F582         MOV     DPL,A
   \   000002   EF           MOV     A,R7
   \   000003   3400         ADDC    A,#0x0
   \   000005   F583         MOV     DPH,A
   \   000007   12....       LCALL   ?Subroutine20 & 0xFFFF
   \                     ??CrossCallReturnLabel_52:
   \   00000A   75..00       MOV     ?V0 + 2,#0x0
   \   00000D   78..         MOV     R0,#?V0 + 0
   \   00000F   22           RET

   \                                 In  segment BANKED_CODE, align 1, keep-with-next
   \                     ?Subroutine6:
   \   000000   C3           CLR     C
   \   000001   E0           MOVX    A,@DPTR
   \   000002   95..         SUBB    A,?V0 + 0
   \   000004   12....       LCALL   ?Subroutine21 & 0xFFFF
   \                     ??CrossCallReturnLabel_26:
   \   000007   22           RET

   \                                 In  segment BANKED_CODE, align 1, keep-with-next
   \                     ?Subroutine21:
   \   000000   A3           INC     DPTR
   \   000001   E0           MOVX    A,@DPTR
   \   000002   9400         SUBB    A,#0x0
   \   000004   A2D2         MOV     C,0xD0 /* PSW */.2
   \   000006   65D0         XRL     A,PSW
   \   000008   33           RLC     A
   \   000009   22           RET

   \                                 In  segment BANKED_CODE, align 1, keep-with-next
   \                     ?Subroutine3:
   \   000000   F0           MOVX    @DPTR,A
   \   000001                ; Setup parameters for call to function HalLcdWriteStringValue
   \   000001   90....       MOV     DPTR,#device_num
   \   000004   12....       LCALL   ?Subroutine20 & 0xFFFF
   \                     ??CrossCallReturnLabel_49:
   \   000007   22           RET

   \                                 In  segment BANKED_CODE, align 1, keep-with-next
   \                     ?Subroutine18:
   \   000000   74..         MOV     A,#online & 0xff
   \   000002   25..         ADD     A,?V0 + 0
   \   000004   F582         MOV     DPL,A
   \   000006   74..         MOV     A,#(online >> 8) & 0xff
   \   000008   22           RET

   \                                 In  segment BANKED_CODE, align 1, keep-with-next
   \                     ?Subroutine14:
   \   000000   EE           MOV     A,R6
   \   000001   2418         ADD     A,#0x18
   \   000003                REQUIRE ??Subroutine33_0
   \   000003                ; // Fall through to label ??Subroutine33_0

   \                                 In  segment BANKED_CODE, align 1, keep-with-next
   \                     ??Subroutine33_0:
   \   000000   F582         MOV     DPL,A
   \   000002   EF           MOV     A,R7
   \   000003                REQUIRE ??Subroutine34_0
   \   000003                ; // Fall through to label ??Subroutine34_0

   \                                 In  segment BANKED_CODE, align 1, keep-with-next
   \                     ??Subroutine34_0:
   \   000000   3400         ADDC    A,#0x0
   \   000002   F583         MOV     DPH,A
   \   000004   E0           MOVX    A,@DPTR
   \   000005   22           RET

   \                                 In  segment BANKED_CODE, align 1, keep-with-next
   \                     ?Subroutine22:
   \   000000   E0           MOVX    A,@DPTR
   \   000001   2401         ADD     A,#0x1
   \   000003   F0           MOVX    @DPTR,A
   \   000004   A3           INC     DPTR
   \   000005   E0           MOVX    A,@DPTR
   \   000006   3400         ADDC    A,#0x0
   \   000008   22           RET
    812          
    813          //处理ZDO层传来的信息

   \                                 In  segment BANKED_CODE, align 1, keep-with-next
    814          void SApp_ProcessMsgCBs( zdoIncomingMsg_t *msgPtr )
   \                     SApp_ProcessMsgCBs:
    815          {
   \   000000   74F0         MOV     A,#-0x10
   \   000002   12....       LCALL   ?BANKED_ENTER_XDATA
   \   000005                ; Saved register size: 16
   \   000005                ; Auto size: 10
   \   000005   74F6         MOV     A,#-0xa
   \   000007   12....       LCALL   ?ALLOC_XSTACK8
   \   00000A   EA           MOV     A,R2
   \   00000B   FE           MOV     R6,A
   \   00000C   EB           MOV     A,R3
   \   00000D   FF           MOV     R7,A
    816          #if defined(ZDO_COORDINATOR)
    817          {
    818            char i;
    819            uint32 l_addr;
    820            char flag = 0;
    821            uint16 nwk_addr;
    822            byte buf[10]; 
    823          //  HalLcdWriteStringValue("GROUP:", group, 10, 4);
    824          
    825            switch ( msgPtr->clusterID ) //判断簇ID
   \   00000E   EE           MOV     A,R6
   \   00000F   240C         ADD     A,#0xc
   \   000011   12....       LCALL   ??Subroutine33_0 & 0xFFFF
   \                     ??CrossCallReturnLabel_72:
   \   000014   6413         XRL     A,#0x13
   \   000016   7002         JNZ     ??SApp_ProcessMsgCBs_0
   \   000018   A3           INC     DPTR
   \   000019   E0           MOVX    A,@DPTR
   \                     ??SApp_ProcessMsgCBs_0:
   \   00001A   6003         JZ      $+5
   \   00001C   02....       LJMP    ??SApp_ProcessMsgCBs_1 & 0xFFFF
    826            {
    827              case Device_annce:
    828          
    829                  osal_memset(buf, 0 , 10);
   \   00001F                ; Setup parameters for call to function osal_memset
   \   00001F   7C0A         MOV     R4,#0xa
   \   000021   7D00         MOV     R5,#0x0
   \   000023   7900         MOV     R1,#0x0
   \   000025   85..82       MOV     DPL,?XSP + 0
   \   000028   85..83       MOV     DPH,?XSP + 1
   \   00002B   AA82         MOV     R2,DPL
   \   00002D   AB83         MOV     R3,DPH
   \   00002F   12....       LCALL   ??osal_memset?relay
    830                  osal_memcpy(buf, msgPtr->asdu, 10); //复制数据到缓冲区中
   \   000032                ; Setup parameters for call to function osal_memcpy
   \   000032   EE           MOV     A,R6
   \   000033   2413         ADD     A,#0x13
   \   000035   12....       LCALL   ?Subroutine9 & 0xFFFF
   \                     ??CrossCallReturnLabel_13:
   \   000038   12....       LCALL   ?PUSH_XSTACK_I_THREE
   \   00003B   7C0A         MOV     R4,#0xa
   \   00003D   7D00         MOV     R5,#0x0
   \   00003F   7403         MOV     A,#0x3
   \   000041   12....       LCALL   ?XSTACK_DISP0_8
   \   000044   12....       LCALL   ?Subroutine16 & 0xFFFF
   \                     ??CrossCallReturnLabel_38:
   \   000047   12....       LCALL   ?DEALLOC_XSTACK8
    831          	nwk_addr = buf[1]*0x100 + buf[0];
   \   00004A   7401         MOV     A,#0x1
   \   00004C   12....       LCALL   ?XSTACK_DISP0_8
   \   00004F   E0           MOVX    A,@DPTR
   \   000050   F9           MOV     R1,A
   \   000051   85..82       MOV     DPL,?XSP + 0
   \   000054   85..83       MOV     DPH,?XSP + 1
   \   000057   E0           MOVX    A,@DPTR
   \   000058   FE           MOV     R6,A
   \   000059   E9           MOV     A,R1
   \   00005A   FF           MOV     R7,A
    832          	l_addr = buf[5]*0x1000000 + buf[4]*0x10000 + buf[3]*0x100 + buf[2];
   \   00005B   7405         MOV     A,#0x5
   \   00005D   12....       LCALL   ?XSTACK_DISP0_8
   \   000060   E0           MOVX    A,@DPTR
   \   000061   F5..         MOV     ?V0 + 4,A
   \   000063   E4           CLR     A
   \   000064   F5..         MOV     ?V0 + 5,A
   \   000066   F5..         MOV     ?V0 + 6,A
   \   000068   F5..         MOV     ?V0 + 7,A
   \   00006A   7418         MOV     A,#0x18
   \   00006C   78..         MOV     R0,#?V0 + 4
   \   00006E   12....       LCALL   ?L_SHL
   \   000071   7404         MOV     A,#0x4
   \   000073   12....       LCALL   ?XSTACK_DISP0_8
   \   000076   E0           MOVX    A,@DPTR
   \   000077   F5..         MOV     ?V0 + 0,A
   \   000079   E4           CLR     A
   \   00007A   F5..         MOV     ?V0 + 1,A
   \   00007C   F5..         MOV     ?V0 + 3,A
   \   00007E   7410         MOV     A,#0x10
   \   000080   78..         MOV     R0,#?V0 + 0
   \   000082   12....       LCALL   ?L_SHL
   \   000085   78..         MOV     R0,#?V0 + 4
   \   000087   79..         MOV     R1,#?V0 + 0
   \   000089   12....       LCALL   ?L_ADD
   \   00008C   7403         MOV     A,#0x3
   \   00008E   12....       LCALL   ?XSTACK_DISP0_8
   \   000091   E0           MOVX    A,@DPTR
   \   000092   F5..         MOV     ?V0 + 0,A
   \   000094   E4           CLR     A
   \   000095   C5..         XCH     A,?V0 + 0
   \   000097   F5..         MOV     ?V0 + 1,A
   \   000099   33           RLC     A
   \   00009A   95E0         SUBB    A,0xE0 /* A   */
   \   00009C   F5..         MOV     ?V0 + 2,A
   \   00009E   F5..         MOV     ?V0 + 3,A
   \   0000A0   78..         MOV     R0,#?V0 + 4
   \   0000A2   79..         MOV     R1,#?V0 + 0
   \   0000A4   12....       LCALL   ?L_ADD
   \   0000A7   7402         MOV     A,#0x2
   \   0000A9   12....       LCALL   ?XSTACK_DISP0_8
   \   0000AC   E0           MOVX    A,@DPTR
   \   0000AD   F5..         MOV     ?V0 + 0,A
   \   0000AF   E4           CLR     A
   \   0000B0   F5..         MOV     ?V0 + 1,A
   \   0000B2   F5..         MOV     ?V0 + 2,A
   \   0000B4   F5..         MOV     ?V0 + 3,A
   \   0000B6   78..         MOV     R0,#?V0 + 4
   \   0000B8   79..         MOV     R1,#?V0 + 0
   \   0000BA   12....       LCALL   ?L_ADD
    833          	#if defined ( LCD_SUPPORTED )
    834          	HalLcdWriteStringValue("DevAnnce:", nwk_addr, 16, 4);
   \   0000BD                ; Setup parameters for call to function HalLcdWriteStringValue
   \   0000BD   8E..         MOV     ?V0 + 0,R6
   \   0000BF   8F..         MOV     ?V0 + 1,R7
   \   0000C1   78..         MOV     R0,#?V0 + 0
   \   0000C3   12....       LCALL   ?PUSH_XSTACK_I_FOUR
   \   0000C6   7C04         MOV     R4,#0x4
   \   0000C8   7910         MOV     R1,#0x10
   \   0000CA   7A..         MOV     R2,#`?<Constant "DevAnnce:">` & 0xff
   \   0000CC   7B..         MOV     R3,#(`?<Constant "DevAnnce:">` >> 8) & 0xff
   \   0000CE   12....       LCALL   ??Subroutine31_0 & 0xFFFF
   \                     ??CrossCallReturnLabel_62:
   \   0000D1   12....       LCALL   ?DEALLOC_XSTACK8
    835          	HalLcdWriteStringValue("l_addr:", l_addr, 16, 3);
   \   0000D4                ; Setup parameters for call to function HalLcdWriteStringValue
   \   0000D4   78..         MOV     R0,#?V0 + 4
   \   0000D6   12....       LCALL   ?PUSH_XSTACK_I_FOUR
   \   0000D9   7C03         MOV     R4,#0x3
   \   0000DB   7910         MOV     R1,#0x10
   \   0000DD   7A..         MOV     R2,#`?<Constant "l_addr:">` & 0xff
   \   0000DF   7B..         MOV     R3,#(`?<Constant "l_addr:">` >> 8) & 0xff
   \   0000E1   12....       LCALL   ??Subroutine31_0 & 0xFFFF
   \                     ??CrossCallReturnLabel_63:
   \   0000E4   12....       LCALL   ?DEALLOC_XSTACK8
    836          	#endif
    837          	
    838          	  	for(i = 0; i <= device_num; i++)
   \   0000E7   7900         MOV     R1,#0x0
   \   0000E9   8001         SJMP    ??SApp_ProcessMsgCBs_2
   \                     ??SApp_ProcessMsgCBs_3:
   \   0000EB   09           INC     R1
   \                     ??SApp_ProcessMsgCBs_2:
   \   0000EC   90....       MOV     DPTR,#device_num
   \   0000EF   89..         MOV     ?V0 + 0,R1
   \   0000F1   12....       LCALL   ?Subroutine6 & 0xFFFF
   \                     ??CrossCallReturnLabel_5:
   \   0000F4   401D         JC      ??SApp_ProcessMsgCBs_4
    839          		{
    840          		 	if(long_addr[i] == l_addr)
   \   0000F6   75..00       MOV     ?V0 + 1,#0x0
   \   0000F9   7402         MOV     A,#0x2
   \   0000FB   78..         MOV     R0,#?V0 + 0
   \   0000FD   12....       LCALL   ?S_SHL
   \   000100   12....       LCALL   ?Subroutine15 & 0xFFFF
   \                     ??CrossCallReturnLabel_18:
   \   000103   12....       LCALL   ?L_EQ_X
   \   000106   70E3         JNZ     ??SApp_ProcessMsgCBs_3
    841          			{
    842          			  	flag = 1;
    843          				device[i] = nwk_addr;
   \   000108   E9           MOV     A,R1
   \   000109   12....       LCALL   ?Subroutine23 & 0xFFFF
   \                     ??CrossCallReturnLabel_34:
   \   00010C   EE           MOV     A,R6
   \   00010D   F0           MOVX    @DPTR,A
   \   00010E   A3           INC     DPTR
   \   00010F   EF           MOV     A,R7
   \   000110   F0           MOVX    @DPTR,A
    844          			  	break;
   \   000111   8020         SJMP    ??SApp_ProcessMsgCBs_5
    845          			}
    846          		}
    847          		if(flag == 0)
    848          		{
    849          	  		device[++device_num] = nwk_addr;
   \                     ??SApp_ProcessMsgCBs_4:
   \   000113   90....       MOV     DPTR,#device_num
   \   000116   12....       LCALL   ?Subroutine11 & 0xFFFF
    850          			long_addr[device_num] = l_addr;
    851          		}
   \                     ??CrossCallReturnLabel_14:
   \   000119   90....       MOV     DPTR,#device_num
   \   00011C   12....       LCALL   ?Subroutine5 & 0xFFFF
   \                     ??CrossCallReturnLabel_3:
   \   00011F   EE           MOV     A,R6
   \   000120   F0           MOVX    @DPTR,A
   \   000121   A3           INC     DPTR
   \   000122   EF           MOV     A,R7
   \   000123   12....       LCALL   ?Subroutine3 & 0xFFFF
   \                     ??CrossCallReturnLabel_1:
   \   000126   7402         MOV     A,#0x2
   \   000128   78..         MOV     R0,#?V0 + 0
   \   00012A   12....       LCALL   ?S_SHL
   \   00012D   12....       LCALL   ?Subroutine15 & 0xFFFF
   \                     ??CrossCallReturnLabel_19:
   \   000130   12....       LCALL   ?L_MOV_TO_X
    852          		
    853          		SampleApp_SendAddrMessage( (uint8 *)device, device_num );
   \                     ??SApp_ProcessMsgCBs_5:
   \   000133                ; Setup parameters for call to function SampleApp_SendAddrMessage
   \   000133   90....       MOV     DPTR,#device_num
   \   000136   12....       LCALL   ?Subroutine12 & 0xFFFF
   \                     ??CrossCallReturnLabel_17:
   \   000139   12....       LCALL   ??SampleApp_SendAddrMessage?relay
    854                
    855                
    856          //      flashTime = BUILD_UINT16(pkt->cmd.Data[1], pkt->cmd.Data[2] );
    857          //      HalLedBlink( HAL_LED_4, 4, 50, (flashTime / 4) );
    858                  break;
    859                
    860            }
    861          }
    862          #endif	
    863          
    864          }
   \                     ??SApp_ProcessMsgCBs_1:
   \   00013C   740A         MOV     A,#0xa
   \   00013E   12....       LCALL   ?DEALLOC_XSTACK8
   \   000141   7F08         MOV     R7,#0x8
   \   000143   02....       LJMP    ?BANKED_LEAVE_XDATA

   \                                 In  segment BANKED_CODE, align 1, keep-with-next
   \                     ?Subroutine15:
   \   000000   74..         MOV     A,#long_addr & 0xff
   \   000002   25..         ADD     A,?V0 + 0
   \   000004   F582         MOV     DPL,A
   \   000006   74..         MOV     A,#(long_addr >> 8) & 0xff
   \   000008   35..         ADDC    A,?V0 + 1
   \   00000A   F583         MOV     DPH,A
   \   00000C   78..         MOV     R0,#?V0 + 4
   \   00000E   22           RET

   \                                 In  segment BANKED_CODE, align 1, keep-with-next
   \                     ?Subroutine11:
   \   000000   12....       LCALL   ?Subroutine22 & 0xFFFF
   \                     ??CrossCallReturnLabel_28:
   \   000003   F0           MOVX    @DPTR,A
   \   000004   22           RET
    865          
    866          

   \                                 In  segment BANKED_CODE, align 1, keep-with-next
   \                     ?Subroutine1:
   \   000000   7403         MOV     A,#0x3
   \   000002   12....       LCALL   ?DEALLOC_XSTACK8
   \   000005                REQUIRE ??Subroutine26_0
   \   000005                ; // Fall through to label ??Subroutine26_0

   \                                 In  segment BANKED_CODE, align 1, keep-with-next
    867          void SampleApp_SendBeepMessage(uint16 dst, uint8 s)
   \                     SampleApp_SendBeepMessage:
    868          {	
   \   000000   74F4         MOV     A,#-0xc
   \   000002   12....       LCALL   ?BANKED_ENTER_XDATA
   \   000005                ; Saved register size: 12
   \   000005                ; Auto size: 3
   \   000005   74FD         MOV     A,#-0x3
   \   000007   12....       LCALL   ?ALLOC_XSTACK8
    869          //#if defined(ZDO_COORDINATOR)
    870            SampleApp_Single_DstAddr.addr.shortAddr = dst;
   \   00000A   90....       MOV     DPTR,#SampleApp_Single_DstAddr
   \   00000D   EA           MOV     A,R2
   \   00000E   F0           MOVX    @DPTR,A
   \   00000F   A3           INC     DPTR
   \   000010   EB           MOV     A,R3
   \   000011   F0           MOVX    @DPTR,A
    871            byte SendData[3] = "BP";
   \   000012   85..82       MOV     DPL,?XSP + 0
   \   000015   85..83       MOV     DPH,?XSP + 1
   \   000018   AC82         MOV     R4,DPL
   \   00001A   AD83         MOV     R5,DPH
   \   00001C   7583..       MOV     DPH,#(`?<Constant "BP">` >> 8) & 0xff
   \   00001F   7582..       MOV     DPL,#`?<Constant "BP">` & 0xff
   \   000022   7403         MOV     A,#0x3
   \   000024   12....       LCALL   ?MOVE_LONG8_XDATA_XDATA
    872            SendData[2] = s;
   \   000027   7402         MOV     A,#0x2
   \   000029   12....       LCALL   ?XSTACK_DISP0_8
   \   00002C   E9           MOV     A,R1
   \   00002D   F0           MOVX    @DPTR,A
    873            #if defined ( LCD_SUPPORTED )
    874            HalLcdWriteStringValue("beep info:", SampleApp_Single_DstAddr.addr.shortAddr, 16, 4);
   \   00002E                ; Setup parameters for call to function HalLcdWriteStringValue
   \   00002E   90....       MOV     DPTR,#SampleApp_Single_DstAddr
   \   000031   12....       LCALL   ??Subroutine30_0 & 0xFFFF
   \                     ??CrossCallReturnLabel_46:
   \   000034   12....       LCALL   ?PUSH_XSTACK_I_FOUR
   \   000037   7C04         MOV     R4,#0x4
   \   000039   12....       LCALL   ?Subroutine13 & 0xFFFF
   \                     ??CrossCallReturnLabel_55:
   \   00003C   12....       LCALL   ?DEALLOC_XSTACK8
    875            #endif
    876            // 调用AF_DataRequest将数据无线广播出去
    877            if( AF_DataRequest( &SampleApp_Single_DstAddr,   //发送目的地址＋端点地址和传送模式
    878                                 &SampleApp_epDesc,            //源(答复或确认)终端的描述（比如操作系统中任务ID等）源EP
    879                                 SAMPLEAPP_SINGLE_CLUSTERID, //被Profile指定的有效的集群号
    880                                 3,                // 发送数据长度
    881                                 SendData,                          // 发送数据缓冲区
    882                                 &SampleApp_TransID,           // 任务ID号
    883                                 AF_DISCV_ROUTE,               // 有效位掩码的发送选项
    884                                 AF_DEFAULT_RADIUS ) == afStatus_SUCCESS )  //传送跳数，通常设置为AF_DEFAULT_RADIUS
   \   00003F                ; Setup parameters for call to function AF_DataRequest
   \   00003F   75..1E       MOV     ?V0 + 0,#0x1e
   \   000042   78..         MOV     R0,#?V0 + 0
   \   000044   12....       LCALL   ?PUSH_XSTACK_I_ONE
   \   000047   75....       MOV     ?V0 + 0,#SampleApp_TransID & 0xff
   \   00004A   75....       MOV     ?V0 + 1,#(SampleApp_TransID >> 8) & 0xff
   \   00004D   78..         MOV     R0,#?V0 + 0
   \   00004F   12....       LCALL   ?PUSH_XSTACK_I_TWO
   \   000052   7403         MOV     A,#0x3
   \   000054   12....       LCALL   ?XSTACK_DISP0_8
   \   000057   8582..       MOV     ?V0 + 0,DPL
   \   00005A   8583..       MOV     ?V0 + 1,DPH
   \   00005D   78..         MOV     R0,#?V0 + 0
   \   00005F   12....       LCALL   ?PUSH_XSTACK_I_TWO
   \   000062   75..03       MOV     ?V0 + 0,#0x3
   \   000065   75..00       MOV     ?V0 + 1,#0x0
   \   000068   78..         MOV     R0,#?V0 + 0
   \   00006A   12....       LCALL   ?PUSH_XSTACK_I_TWO
   \   00006D   78..         MOV     R0,#?V0 + 0
   \   00006F   12....       LCALL   ?PUSH_XSTACK_I_TWO
   \   000072   7920         MOV     R1,#0x20
   \   000074   7C..         MOV     R4,#SampleApp_epDesc & 0xff
   \   000076   7D..         MOV     R5,#(SampleApp_epDesc >> 8) & 0xff
   \   000078   7A..         MOV     R2,#SampleApp_Single_DstAddr & 0xff
   \   00007A   7B..         MOV     R3,#(SampleApp_Single_DstAddr >> 8) & 0xff
   \   00007C   12....       LCALL   ??Subroutine32_0 & 0xFFFF
   \                     ??CrossCallReturnLabel_67:
   \   00007F   12....       LCALL   ?DEALLOC_XSTACK8
   \   000082   E9           MOV     A,R1
   \   000083   6007         JZ      ??SampleApp_SendBeepMessage_0
    885            {
    886            }
    887            else
    888            {
    889              HalLedSet(HAL_LED_1, HAL_LED_MODE_ON);
   \   000085                ; Setup parameters for call to function HalLedSet
   \   000085   7A01         MOV     R2,#0x1
   \   000087   7901         MOV     R1,#0x1
   \   000089   12....       LCALL   ??HalLedSet?relay
    890              // Error occurred in request to send.
    891            }
    892          //#else
    893            
    894          //#endif
    895          }
   \                     ??SampleApp_SendBeepMessage_0:
   \   00008C   02....       LJMP    ?Subroutine1 & 0xFFFF

   \                                 In  segment BANKED_CODE, align 1, keep-with-next
   \                     ??Subroutine32_0:
   \   000000   12....       LCALL   ??AF_DataRequest?relay
   \   000003   7409         MOV     A,#0x9
   \   000005   22           RET
    896          
    897          

   \                                 In  segment BANKED_CODE, align 1, keep-with-next
    898          void SampleApp_SendAddrMessage(uint8 dev[], int dev_num)
   \                     SampleApp_SendAddrMessage:
    899          {	
   \   000000   74F6         MOV     A,#-0xa
   \   000002   12....       LCALL   ?BANKED_ENTER_XDATA
   \   000005                ; Saved register size: 10
   \   000005                ; Auto size: 0
    900          //#if defined(ZDO_COORDINATOR)
    901            
    902            // 调用AF_DataRequest将数据无线广播出去
    903            if( AF_DataRequest( &SampleApp_Periodic_DstAddr,   //发送目的地址＋端点地址和传送模式
    904                                 &SampleApp_epDesc,            //源(答复或确认)终端的描述（比如操作系统中任务ID等）源EP
    905                                 SAMPLEAPP_PERIODIC_CLUSTERID, //被Profile指定的有效的集群号
    906                                 (dev_num+1)*2,                // 发送数据长度
    907                                 dev,                          // 发送数据缓冲区
    908                                 &SampleApp_TransID,           // 任务ID号
    909                                 AF_DISCV_ROUTE,               // 有效位掩码的发送选项
    910                                 AF_DEFAULT_RADIUS ) == afStatus_SUCCESS )  //传送跳数，通常设置为AF_DEFAULT_RADIUS
   \   000005                ; Setup parameters for call to function AF_DataRequest
   \   000005   75..1E       MOV     ?V0 + 0,#0x1e
   \   000008   78..         MOV     R0,#?V0 + 0
   \   00000A   12....       LCALL   ?PUSH_XSTACK_I_ONE
   \   00000D   75....       MOV     ?V0 + 0,#SampleApp_TransID & 0xff
   \   000010   75....       MOV     ?V0 + 1,#(SampleApp_TransID >> 8) & 0xff
   \   000013   78..         MOV     R0,#?V0 + 0
   \   000015   12....       LCALL   ?PUSH_XSTACK_I_TWO
   \   000018   8A..         MOV     ?V0 + 0,R2
   \   00001A   8B..         MOV     ?V0 + 1,R3
   \   00001C   78..         MOV     R0,#?V0 + 0
   \   00001E   12....       LCALL   ?PUSH_XSTACK_I_TWO
   \   000021   EC           MOV     A,R4
   \   000022   2401         ADD     A,#0x1
   \   000024   F5..         MOV     ?V0 + 0,A
   \   000026   ED           MOV     A,R5
   \   000027   3400         ADDC    A,#0x0
   \   000029   F5..         MOV     ?V0 + 1,A
   \   00002B   E5..         MOV     A,?V0 + 0
   \   00002D   C3           CLR     C
   \   00002E   33           RLC     A
   \   00002F   F5..         MOV     ?V0 + 0,A
   \   000031   E5..         MOV     A,?V0 + 1
   \   000033   33           RLC     A
   \   000034   F5..         MOV     ?V0 + 1,A
   \   000036   78..         MOV     R0,#?V0 + 0
   \   000038   12....       LCALL   ?PUSH_XSTACK_I_TWO
   \   00003B   75..01       MOV     ?V0 + 0,#0x1
   \   00003E   75..00       MOV     ?V0 + 1,#0x0
   \   000041   78..         MOV     R0,#?V0 + 0
   \   000043   12....       LCALL   ?PUSH_XSTACK_I_TWO
   \   000046   12....       LCALL   ?Subroutine19 & 0xFFFF
   \                     ??CrossCallReturnLabel_65:
   \   000049   12....       LCALL   ?DEALLOC_XSTACK8
   \   00004C   E9           MOV     A,R1
   \   00004D   6007         JZ      ??SampleApp_SendAddrMessage_0
    911            {
    912            }
    913            else
    914            {
    915              HalLedSet(HAL_LED_1, HAL_LED_MODE_ON);
   \   00004F                ; Setup parameters for call to function HalLedSet
   \   00004F   7A01         MOV     R2,#0x1
   \   000051   7901         MOV     R1,#0x1
   \   000053   12....       LCALL   ??HalLedSet?relay
    916              // Error occurred in request to send.
    917            }
    918          //#else
    919            
    920          //#endif
    921          }
   \                     ??SampleApp_SendAddrMessage_0:
   \   000056                REQUIRE ?Subroutine2
   \   000056                ; // Fall through to label ?Subroutine2

   \                                 In  segment BANKED_CODE, align 1, keep-with-next
   \                     ?Subroutine2:
   \   000000   7F02         MOV     R7,#0x2
   \   000002   02....       LJMP    ?BANKED_LEAVE_XDATA

   \                                 In  segment BANKED_CODE, align 1, keep-with-next
   \                     ?Subroutine19:
   \   000000   7920         MOV     R1,#0x20
   \   000002   7C..         MOV     R4,#SampleApp_epDesc & 0xff
   \   000004   7D..         MOV     R5,#(SampleApp_epDesc >> 8) & 0xff
   \   000006   7A..         MOV     R2,#SampleApp_Periodic_DstAddr & 0xff
   \   000008   7B..         MOV     R3,#(SampleApp_Periodic_DstAddr >> 8) & 0xff
   \   00000A                REQUIRE ??Subroutine32_0
   \   00000A                ; // Fall through to label ??Subroutine32_0
    922          
    923          
    924          
    925          /*********************************************************************
    926           * @fn      SampleApp_SendPeriodicMessage
    927           *
    928           * @brief   Send the periodic message.
    929           *
    930           * @param   none
    931           *
    932           * @return  none
    933           */
    934          //分析发送周期信息

   \                                 In  segment BANKED_CODE, align 1, keep-with-next
    935          void SampleApp_SendPeriodicMessage( void )
   \                     SampleApp_SendPeriodicMessage:
    936          {	
   \   000000   74F4         MOV     A,#-0xc
   \   000002   12....       LCALL   ?BANKED_ENTER_XDATA
   \   000005                ; Saved register size: 12
   \   000005                ; Auto size: 3
   \   000005   74FD         MOV     A,#-0x3
   \   000007   12....       LCALL   ?ALLOC_XSTACK8
    937          //#if defined(ZDO_COORDINATOR)
    938            
    939            byte SendData[3]="D1";
   \   00000A   85..82       MOV     DPL,?XSP + 0
   \   00000D   85..83       MOV     DPH,?XSP + 1
   \   000010   AC82         MOV     R4,DPL
   \   000012   AD83         MOV     R5,DPH
   \   000014   7583..       MOV     DPH,#(`?<Constant "D1">` >> 8) & 0xff
   \   000017   7582..       MOV     DPL,#`?<Constant "D1">` & 0xff
   \   00001A   7403         MOV     A,#0x3
   \   00001C   12....       LCALL   ?MOVE_LONG8_XDATA_XDATA
    940            #if defined(ZDO_COORDINATOR)
    941            uint8 i = 0;
    942            freq_count++;
   \   00001F   90....       MOV     DPTR,#freq_count
   \   000022   12....       LCALL   ?Subroutine11 & 0xFFFF
    943            if(freq_count == 2)
   \                     ??CrossCallReturnLabel_15:
   \   000025   90....       MOV     DPTR,#freq_count
   \   000028   E0           MOVX    A,@DPTR
   \   000029   6402         XRL     A,#0x2
   \   00002B   7002         JNZ     ??SampleApp_SendPeriodicMessage_0
   \   00002D   A3           INC     DPTR
   \   00002E   E0           MOVX    A,@DPTR
   \                     ??SampleApp_SendPeriodicMessage_0:
   \   00002F   7041         JNZ     ??SampleApp_SendPeriodicMessage_1
    944            {
    945              for(i = 1; i <= device_num; i++)
   \   000031   7E01         MOV     R6,#0x1
   \   000033   802C         SJMP    ??SampleApp_SendPeriodicMessage_2
    946              {
    947              	if(online[i] == 0)
   \                     ??SampleApp_SendPeriodicMessage_3:
   \   000035   12....       LCALL   ?Subroutine18 & 0xFFFF
   \                     ??CrossCallReturnLabel_23:
   \   000038   12....       LCALL   ??Subroutine34_0 & 0xFFFF
   \                     ??CrossCallReturnLabel_70:
   \   00003B   701A         JNZ     ??SampleApp_SendPeriodicMessage_4
    948          	{
    949          	    HalLcdWriteStringValue("dev lost:", i, 10, 3);
   \   00003D                ; Setup parameters for call to function HalLcdWriteStringValue
   \   00003D   E4           CLR     A
   \   00003E   F5..         MOV     ?V0 + 1,A
   \   000040   F5..         MOV     ?V0 + 2,A
   \   000042   F5..         MOV     ?V0 + 3,A
   \   000044   78..         MOV     R0,#?V0 + 0
   \   000046   12....       LCALL   ?PUSH_XSTACK_I_FOUR
   \   000049   7C03         MOV     R4,#0x3
   \   00004B   790A         MOV     R1,#0xa
   \   00004D   7A..         MOV     R2,#`?<Constant "dev lost:">` & 0xff
   \   00004F   7B..         MOV     R3,#(`?<Constant "dev lost:">` >> 8) & 0xff
   \   000051   12....       LCALL   ??Subroutine31_0 & 0xFFFF
    950          	}
   \                     ??CrossCallReturnLabel_64:
   \   000054   12....       LCALL   ?DEALLOC_XSTACK8
    951          	online[i] = 0;
   \                     ??SampleApp_SendPeriodicMessage_4:
   \   000057   12....       LCALL   ?Subroutine18 & 0xFFFF
    952              }
   \                     ??CrossCallReturnLabel_24:
   \   00005A   3400         ADDC    A,#0x0
   \   00005C   F583         MOV     DPH,A
   \   00005E   E4           CLR     A
   \   00005F   F0           MOVX    @DPTR,A
   \   000060   0E           INC     R6
   \                     ??SampleApp_SendPeriodicMessage_2:
   \   000061   90....       MOV     DPTR,#device_num
   \   000064   8E..         MOV     ?V0 + 0,R6
   \   000066   12....       LCALL   ?Subroutine6 & 0xFFFF
   \                     ??CrossCallReturnLabel_6:
   \   000069   50CA         JNC     ??SampleApp_SendPeriodicMessage_3
    953              
    954              freq_count  = 0;
   \   00006B   90....       MOV     DPTR,#freq_count
   \   00006E   E4           CLR     A
   \   00006F   F0           MOVX    @DPTR,A
   \   000070   A3           INC     DPTR
   \   000071   F0           MOVX    @DPTR,A
    955            }
    956            #endif
    957            
    958            // 调用AF_DataRequest将数据无线广播出去
    959            if( AF_DataRequest( &SampleApp_Periodic_DstAddr,//发送目的地址＋端点地址和传送模式
    960                                 &SampleApp_epDesc,//源(答复或确认)终端的描述（比如操作系统中任务ID等）源EP
    961                                 SAMPLEAPP_PERIODIC_CLUSTERID, //被Profile指定的有效的集群号
    962                                 3,       // 发送数据长度
    963                                 SendData,// 发送数据缓冲区
    964                                 &SampleApp_TransID,     // 任务ID号
    965                                 AF_DISCV_ROUTE,      // 有效位掩码的发送选项
    966                                 AF_DEFAULT_RADIUS ) == afStatus_SUCCESS )  //传送跳数，通常设置为AF_DEFAULT_RADIUS
   \                     ??SampleApp_SendPeriodicMessage_1:
   \   000072                ; Setup parameters for call to function AF_DataRequest
   \   000072   75..1E       MOV     ?V0 + 0,#0x1e
   \   000075   78..         MOV     R0,#?V0 + 0
   \   000077   12....       LCALL   ?PUSH_XSTACK_I_ONE
   \   00007A   75....       MOV     ?V0 + 0,#SampleApp_TransID & 0xff
   \   00007D   75....       MOV     ?V0 + 1,#(SampleApp_TransID >> 8) & 0xff
   \   000080   78..         MOV     R0,#?V0 + 0
   \   000082   12....       LCALL   ?PUSH_XSTACK_I_TWO
   \   000085   7403         MOV     A,#0x3
   \   000087   12....       LCALL   ?XSTACK_DISP0_8
   \   00008A   8582..       MOV     ?V0 + 0,DPL
   \   00008D   8583..       MOV     ?V0 + 1,DPH
   \   000090   78..         MOV     R0,#?V0 + 0
   \   000092   12....       LCALL   ?PUSH_XSTACK_I_TWO
   \   000095   75..03       MOV     ?V0 + 0,#0x3
   \   000098   75..00       MOV     ?V0 + 1,#0x0
   \   00009B   78..         MOV     R0,#?V0 + 0
   \   00009D   12....       LCALL   ?PUSH_XSTACK_I_TWO
   \   0000A0   75..01       MOV     ?V0 + 0,#0x1
   \   0000A3   78..         MOV     R0,#?V0 + 0
   \   0000A5   12....       LCALL   ?PUSH_XSTACK_I_TWO
   \   0000A8   12....       LCALL   ?Subroutine19 & 0xFFFF
   \                     ??CrossCallReturnLabel_66:
   \   0000AB   12....       LCALL   ?DEALLOC_XSTACK8
   \   0000AE   E9           MOV     A,R1
   \   0000AF   6007         JZ      ??SampleApp_SendPeriodicMessage_5
    967            {
    968            }
    969            else
    970            {
    971              HalLedSet(HAL_LED_1, HAL_LED_MODE_ON);
   \   0000B1                ; Setup parameters for call to function HalLedSet
   \   0000B1   7A01         MOV     R2,#0x1
   \   0000B3   7901         MOV     R1,#0x1
   \   0000B5   12....       LCALL   ??HalLedSet?relay
    972              // Error occurred in request to send.
    973            }
    974          //#else
    975            
    976          //#endif
    977          }
   \                     ??SampleApp_SendPeriodicMessage_5:
   \   0000B8   02....       LJMP    ?Subroutine1 & 0xFFFF
    978          
    979          /*********************************************************************
    980           * @fn      SampleApp_SendFlashMessage
    981           *
    982           * @brief   Send the flash message to group 1.
    983           *
    984           * @param   flashTime - in milliseconds
    985           *
    986           * @return  none
    987           */

   \                                 In  segment BANKED_CODE, align 1, keep-with-next
    988          void SampleApp_SendFlashMessage( uint16 flashTime ,uint16 data) //此实验没有用到，后面再分析
   \                     SampleApp_SendFlashMessage:
    989          {
   \   000000   74F6         MOV     A,#-0xa
   \   000002   12....       LCALL   ?BANKED_ENTER_XDATA
   \   000005                ; Saved register size: 10
   \   000005                ; Auto size: 4
   \   000005   74FC         MOV     A,#-0x4
   \   000007   12....       LCALL   ?ALLOC_XSTACK8
    990            uint8 buffer[4];
    991            buffer[0] = (uint8)(SampleAppFlashCounter++);
   \   00000A   90....       MOV     DPTR,#SampleAppFlashCounter
   \   00000D   E0           MOVX    A,@DPTR
   \   00000E   85..82       MOV     DPL,?XSP + 0
   \   000011   85..83       MOV     DPH,?XSP + 1
   \   000014   F0           MOVX    @DPTR,A
   \   000015   90....       MOV     DPTR,#SampleAppFlashCounter
   \   000018   E0           MOVX    A,@DPTR
   \   000019   04           INC     A
   \   00001A   F0           MOVX    @DPTR,A
    992            buffer[1] = data;
   \   00001B   7401         MOV     A,#0x1
   \   00001D   12....       LCALL   ?XSTACK_DISP0_8
   \   000020   EC           MOV     A,R4
   \   000021   F0           MOVX    @DPTR,A
    993            buffer[2] = data;
   \   000022   7402         MOV     A,#0x2
   \   000024   12....       LCALL   ?XSTACK_DISP0_8
   \   000027   EC           MOV     A,R4
   \   000028   F0           MOVX    @DPTR,A
    994            buffer[3] = data;
   \   000029   7403         MOV     A,#0x3
   \   00002B   12....       LCALL   ?XSTACK_DISP0_8
   \   00002E   EC           MOV     A,R4
   \   00002F   F0           MOVX    @DPTR,A
    995          
    996            if ( AF_DataRequest( &SampleApp_Flash_DstAddr, &SampleApp_epDesc,
    997                                 SAMPLEAPP_FLASH_CLUSTERID,
    998                                 4,
    999                                 buffer,
   1000                                 &SampleApp_TransID,
   1001                                 AF_DISCV_ROUTE,
   1002                                 AF_DEFAULT_RADIUS ) == afStatus_SUCCESS )
   \   000030                ; Setup parameters for call to function AF_DataRequest
   \   000030   75..1E       MOV     ?V0 + 0,#0x1e
   \   000033   78..         MOV     R0,#?V0 + 0
   \   000035   12....       LCALL   ?PUSH_XSTACK_I_ONE
   \   000038   75....       MOV     ?V0 + 0,#SampleApp_TransID & 0xff
   \   00003B   75....       MOV     ?V0 + 1,#(SampleApp_TransID >> 8) & 0xff
   \   00003E   78..         MOV     R0,#?V0 + 0
   \   000040   12....       LCALL   ?PUSH_XSTACK_I_TWO
   \   000043   7403         MOV     A,#0x3
   \   000045   12....       LCALL   ?XSTACK_DISP0_8
   \   000048   8582..       MOV     ?V0 + 0,DPL
   \   00004B   8583..       MOV     ?V0 + 1,DPH
   \   00004E   78..         MOV     R0,#?V0 + 0
   \   000050   12....       LCALL   ?PUSH_XSTACK_I_TWO
   \   000053   75..04       MOV     ?V0 + 0,#0x4
   \   000056   75..00       MOV     ?V0 + 1,#0x0
   \   000059   78..         MOV     R0,#?V0 + 0
   \   00005B   12....       LCALL   ?PUSH_XSTACK_I_TWO
   \   00005E   75..02       MOV     ?V0 + 0,#0x2
   \   000061   78..         MOV     R0,#?V0 + 0
   \   000063   12....       LCALL   ?PUSH_XSTACK_I_TWO
   \   000066   7920         MOV     R1,#0x20
   \   000068   7C..         MOV     R4,#SampleApp_epDesc & 0xff
   \   00006A   7D..         MOV     R5,#(SampleApp_epDesc >> 8) & 0xff
   \   00006C   7A..         MOV     R2,#SampleApp_Flash_DstAddr & 0xff
   \   00006E   7B..         MOV     R3,#(SampleApp_Flash_DstAddr >> 8) & 0xff
   \   000070   12....       LCALL   ??Subroutine32_0 & 0xFFFF
   \                     ??CrossCallReturnLabel_68:
   \   000073   12....       LCALL   ?DEALLOC_XSTACK8
   1003            {
   1004            }
   1005            else
   1006            {
   1007              // Error occurred in request to send.
   1008            }
   1009          }
   \   000076   7404         MOV     A,#0x4
   \   000078   12....       LCALL   ?DEALLOC_XSTACK8
   \   00007B   02....       LJMP    ?Subroutine2 & 0xFFFF

   \                                 In  segment INTVEC, offset 0x5b, root
   \                     `??T3_ISR??INTVEC 91`:
   \   00005B   02....       LJMP       (T3_ISR)

   \                                 In  segment XDATA_ID, align 1, keep-with-next
   \                     `?<Initializer for AppTitle>`:
   \   000000   414C4432     DB "ALD2530 LED"
   \            35333020
   \            4C454400

   \                                 In  segment XDATA_ID, align 1, keep-with-next
   \                     `?<Initializer for main_flag>`:
   \   000000   0100         DW 1

   \                                 In  segment BANK_RELAYS, align 1
   \                     ??InitT1?relay:
   \   000000   12....       LCALL   ?BDISPATCH
   \   000003   ......       DC24    InitT1

   \                                 In  segment BANK_RELAYS, align 1
   \                     ??InitT3?relay:
   \   000000   12....       LCALL   ?BDISPATCH
   \   000003   ......       DC24    InitT3

   \                                 In  segment BANK_RELAYS, align 1
   \                     ??beep0?relay:
   \   000000   12....       LCALL   ?BDISPATCH
   \   000003   ......       DC24    beep0

   \                                 In  segment BANK_RELAYS, align 1
   \                     ??beep1?relay:
   \   000000   12....       LCALL   ?BDISPATCH
   \   000003   ......       DC24    beep1

   \                                 In  segment BANK_RELAYS, align 1
   \                     ??beep2?relay:
   \   000000   12....       LCALL   ?BDISPATCH
   \   000003   ......       DC24    beep2

   \                                 In  segment BANK_RELAYS, align 1
   \                     ??SampleApp_Init?relay:
   \   000000   12....       LCALL   ?BDISPATCH
   \   000003   ......       DC24    SampleApp_Init

   \                                 In  segment BANK_RELAYS, align 1
   \                     ??SampleApp_ProcessEvent?relay:
   \   000000   12....       LCALL   ?BDISPATCH
   \   000003   ......       DC24    SampleApp_ProcessEvent

   \                                 In  segment BANK_RELAYS, align 1
   \                     ??SampleApp_HandleKeys?relay:
   \   000000   12....       LCALL   ?BDISPATCH
   \   000003   ......       DC24    SampleApp_HandleKeys

   \                                 In  segment BANK_RELAYS, align 1
   \                     ??SampleApp_MessageMSGCB?relay:
   \   000000   12....       LCALL   ?BDISPATCH
   \   000003   ......       DC24    SampleApp_MessageMSGCB

   \                                 In  segment BANK_RELAYS, align 1
   \                     ??SApp_ProcessMsgCBs?relay:
   \   000000   12....       LCALL   ?BDISPATCH
   \   000003   ......       DC24    SApp_ProcessMsgCBs

   \                                 In  segment BANK_RELAYS, align 1
   \                     ??SampleApp_SendBeepMessage?relay:
   \   000000   12....       LCALL   ?BDISPATCH
   \   000003   ......       DC24    SampleApp_SendBeepMessage

   \                                 In  segment BANK_RELAYS, align 1
   \                     ??SampleApp_SendAddrMessage?relay:
   \   000000   12....       LCALL   ?BDISPATCH
   \   000003   ......       DC24    SampleApp_SendAddrMessage

   \                                 In  segment BANK_RELAYS, align 1
   \                     ??SampleApp_SendPeriodicMessage?relay:
   \   000000   12....       LCALL   ?BDISPATCH
   \   000003   ......       DC24    SampleApp_SendPeriodicMessage

   \                                 In  segment BANK_RELAYS, align 1
   \                     ??SampleApp_SendFlashMessage?relay:
   \   000000   12....       LCALL   ?BDISPATCH
   \   000003   ......       DC24    SampleApp_SendFlashMessage

   \                                 In  segment XDATA_ROM_C, align 1
   \                     `?<Constant "Group 1">`:
   \   000000   47726F75     DB "Group 1"
   \            70203100

   \                                 In  segment XDATA_ROM_C, align 1
   \                     `?<Constant "SampleApp">`:
   \   000000   53616D70     DB "SampleApp"
   \            6C654170
   \            7000    

   \                                 In  segment XDATA_ROM_C, align 1
   \                     `?<Constant "sel_dev:">`:
   \   000000   73656C5F     DB "sel_dev:"
   \            6465763A
   \            00      

   \                                 In  segment XDATA_ROM_C, align 1
   \                     `?<Constant "model:">`:
   \   000000   6D6F6465     DB "model:"
   \            6C3A00  

   \                                 In  segment XDATA_ROM_C, align 1
   \                     `?<Constant "rssi:">`:
   \   000000   72737369     DB "rssi:"
   \            3A00    

   \                                 In  segment XDATA_ROM_C, align 1
   \                     `?<Constant "src addr:">`:
   \   000000   73726320     DB "src addr:"
   \            61646472
   \            3A00    

   \                                 In  segment XDATA_ROM_C, align 1
   \                     `?<Constant "total device:">`:
   \   000000   746F7461     DB "total device:"
   \            6C206465
   \            76696365
   \            3A00    

   \                                 In  segment XDATA_ROM_C, align 1
   \                     `?<Constant "dev_NO.">`:
   \   000000   6465765F     DB "dev_NO."
   \            4E4F2E00

   \                                 In  segment XDATA_ROM_C, align 1
   \                     `?<Constant "beep info:">`:
   \   000000   62656570     DB "beep info:"
   \            20696E66
   \            6F3A00  

   \                                 In  segment XDATA_ROM_C, align 1
   \                     `?<Constant "DevAnnce:">`:
   \   000000   44657641     DB "DevAnnce:"
   \            6E6E6365
   \            3A00    

   \                                 In  segment XDATA_ROM_C, align 1
   \                     `?<Constant "l_addr:">`:
   \   000000   6C5F6164     DB "l_addr:"
   \            64723A00

   \                                 In  segment XDATA_ROM_C, align 1
   \                     `?<Constant "BP">`:
   \   000000   425000       DB "BP"

   \                                 In  segment XDATA_ROM_C, align 1
   \                     `?<Constant "D1">`:
   \   000000   443100       DB "D1"

   \                                 In  segment XDATA_ROM_C, align 1
   \                     `?<Constant "dev lost:">`:
   \   000000   64657620     DB "dev lost:"
   \            6C6F7374
   \            3A00    
   1010          
   1011          /*********************************************************************
   1012          *********************************************************************/

   Maximum stack usage in bytes:

     Function                       ISTACK PSTACK XSTACK
     --------                       ------ ------ ------
     InitT1                             2      0     11
     InitT3                             0      0     11
     SApp_ProcessMsgCBs                 0      0     42
       -> osal_memset                   0      0     52
       -> osal_memcpy                   0      0     58
       -> HalLcdWriteStringValue        0      0     60
       -> HalLcdWriteStringValue        0      0     60
       -> SampleApp_SendAddrMessage     0      0     52
     SampleApp_HandleKeys               2      0     28
       -> HalLcdWriteStringValue        0      0     32
       -> SampleApp_SendBeepMessage     0      0     24
       -> SampleApp_SendBeepMessage     0      0     24
       -> HalLcdWriteStringValue        0      0     32
     SampleApp_Init                     0      0     14
       -> afRegister                    0      0     22
       -> RegisterForKeys               0      0     22
       -> osal_memcpy                   0      0     28
       -> aps_AddGroup                  0      0     22
       -> HalLcdWriteString             0      0     22
       -> ZDO_RegisterForZDOMsg         0      0     22
       -> InitT1                        0      0     22
       -> InitT3                        0      0     22
     SampleApp_MessageMSGCB             0      0     34
       -> osal_memset                   0      0     36
       -> osal_memcpy                   0      0     42
       -> abs                           0      0     36
       -> HalLcdWriteStringValue        0      0     44
       -> HalLcdWriteStringValue        0      0     44
       -> osal_memcpy                   0      0     42
       -> HalLcdWriteStringValue        0      0     44
       -> NLME_GetShortAddr             0      0     36
       -> HalLcdWriteStringValue        0      0     44
       -> HalLedSet                     0      0     36
       -> HalLcdWriteStringValue        0      0     44
       -> osal_memset                   0      0     36
       -> osal_memcpy                   0      0     42
     SampleApp_ProcessEvent             0      0     12
       -> osal_msg_receive              0      0     24
       -> osal_start_timerEx            0      0     24
       -> osal_msg_deallocate           0      0     24
       -> osal_msg_receive              0      0     24
       -> SampleApp_HandleKeys          0      0     24
       -> SampleApp_MessageMSGCB        0      0     24
       -> SApp_ProcessMsgCBs            0      0     24
       -> SampleApp_SendPeriodicMessage
                                        0      0     24
       -> osal_rand                     0      0     24
       -> osal_start_timerEx            0      0     24
     SampleApp_SendAddrMessage          0      0     45
       -> AF_DataRequest                0      0     38
       -> HalLedSet                     0      0     20
     SampleApp_SendBeepMessage          2      0     36
       -> HalLcdWriteStringValue        0      0     38
       -> AF_DataRequest                0      0     48
       -> HalLedSet                     0      0     30
     SampleApp_SendFlashMessage         1      0     23
       -> AF_DataRequest                0      0     46
     SampleApp_SendPeriodicMessage      2      0     36
       -> HalLcdWriteStringValue        0      0     38
       -> AF_DataRequest                0      0     48
       -> HalLedSet                     0      0     30
     T3_ISR                             8      0      0
     beep0                              0      0      0
     beep1                              0      0      0
     beep2                              0      0      0


   Segment part sizes:

     Function/Label                        Bytes
     --------------                        -----
     CLKCONSTA                                1
     _A_IEN0                                  1
     _A_IEN1                                  1
     _A_IRCON                                 1
     CLKCONCMD                                1
     T3CTL                                    1
     T1CC0L                                   1
     T1CC0H                                   1
     T1CTL                                    1
     PERCFG                                   1
     P0SEL                                    1
     P2SEL                                    1
     P0DIR                                    1
     P2DIR                                    1
     AppTitle                                12
     SampleApp_ClusterList                    6
     SampleApp_SimpleDesc                    12
     SampleApp_epDesc                         6
     SampleApp_TaskID                         1
     SampleApp_NwkState                       1
     SampleApp_TransID                        1
     SampleApp_Periodic_DstAddr              12
     SampleApp_Single_DstAddr                12
     SampleApp_Flash_DstAddr                 12
     SampleApp_Group                         18
     SampleAppPeriodicCounter                 1
     SampleAppFlashCounter                    1
     device                                  64
     long_addr                              128
     online                                  32
     sel_dev                                  2
     main_flag                                2
     beep_flag                                2
     time_flag                                2
     distance_flag                            2
     count                                    2
     period_count                             2
     device_num                               2
     freq_count                               2
     dst_dev                                  2
     InitT1                                  65
     InitT3                                  19
     T3_ISR                                 165
     ?Subroutine25                           14
     beep0                                    9
     beep1                                    3
     ?Subroutine0                             6
     beep2                                    5
     SampleApp_Init                         199
     ??Subroutine28_0                         6
     SampleApp_ProcessEvent                 177
     ??Subroutine26_0                         5
     SampleApp_HandleKeys                   304
     ?Subroutine7                             7
     ?Subroutine24                           10
     ??Subroutine27_0                        13
     ?Subroutine10                            3
     ??Subroutine29_0                         6
     ?Subroutine8                             6
     ??Subroutine31_0                         6
     ?Subroutine5                            14
     ?Subroutine20                            8
     SampleApp_MessageMSGCB                 625
     ?Subroutine17                            8
     ?Subroutine23                            4
     ?Subroutine16                            4
     ?Subroutine4                            10
     ??Subroutine30_0                        11
     ?Subroutine13                            6
     ?Subroutine12                           10
     ?Subroutine9                            16
     ?Subroutine6                             8
     ?Subroutine21                           10
     ?Subroutine3                             8
     ?Subroutine18                            9
     ?Subroutine14                            3
     ??Subroutine33_0                         3
     ??Subroutine34_0                         6
     ?Subroutine22                            9
     SApp_ProcessMsgCBs                     326
     ?Subroutine15                           15
     ?Subroutine11                            5
     ?Subroutine1                             5
     SampleApp_SendBeepMessage              143
     ??Subroutine32_0                         6
     SampleApp_SendAddrMessage               86
     ?Subroutine2                             5
     ?Subroutine19                           10
     SampleApp_SendPeriodicMessage          187
     SampleApp_SendFlashMessage             126
     ??T3_ISR??INTVEC 91                      3
     ?<Initializer for AppTitle>             12
     ?<Initializer for main_flag>             2
     ??InitT1?relay                           6
     ??InitT3?relay                           6
     ??beep0?relay                            6
     ??beep1?relay                            6
     ??beep2?relay                            6
     ??SampleApp_Init?relay                   6
     ??SampleApp_ProcessEvent?relay           6
     ??SampleApp_HandleKeys?relay             6
     ??SampleApp_MessageMSGCB?relay           6
     ??SApp_ProcessMsgCBs?relay               6
     ??SampleApp_SendBeepMessage?relay        6
     ??SampleApp_SendAddrMessage?relay        6
     ??SampleApp_SendPeriodicMessage?relay    6
     ??SampleApp_SendFlashMessage?relay       6
     ?<Constant "Group 1">                    8
     ?<Constant "SampleApp">                 10
     ?<Constant "sel_dev:">                   9
     ?<Constant "model:">                     7
     ?<Constant "rssi:">                      6
     ?<Constant "src addr:">                 10
     ?<Constant "total device:">             14
     ?<Constant "dev_NO.">                    8
     ?<Constant "beep info:">                11
     ?<Constant "DevAnnce:">                 10
     ?<Constant "l_addr:">                    8
     ?<Constant "BP">                         3
     ?<Constant "D1">                         3
     ?<Constant "dev lost:">                 10

 
 2 535 bytes in segment BANKED_CODE
    84 bytes in segment BANK_RELAYS
     3 bytes in segment INTVEC
   179 bytes in segment NEAR_CODE
    14 bytes in segment SFR_AN
    14 bytes in segment XDATA_I
    14 bytes in segment XDATA_ID
   135 bytes in segment XDATA_ROM_C
   307 bytes in segment XDATA_Z
 
 2 812 bytes of CODE  memory (+  3 bytes shared)
   135 bytes of CONST memory
     0 bytes of DATA  memory (+ 14 bytes shared)
   321 bytes of XDATA memory

Errors: none
Warnings: none
