###############################################################################
#                                                                             #
# IAR C/C++ Compiler V8.10.3.10338/W32 for 8051         01/Jun/2017  16:02:05 #
# Copyright 2004-2011 IAR Systems AB.                                         #
#                                                                             #
#    Core               =  plain                                              #
#    Code model         =  banked                                             #
#    Data model         =  large                                              #
#    Calling convention =  xdata reentrant                                    #
#    Constant location  =  data_rom                                           #
#    Dptr setup         =  1,16                                               #
#    Source file        =  C:\Users\li\Desktop\ZStack-2.5.1a -                #
#                          副本\Projects\zstack\Samples\SampleApp\Source\Samp #
#                          leApp.c                                            #
#    Command line       =  -f "C:\Users\li\Desktop\ZStack-2.5.1a -            #
#                          副本\Projects\zstack\Samples\SampleApp\CC2530DB\.. #
#                          \..\..\Tools\CC2530DB\f8wCoord.cfg" (-DCPU32MHZ    #
#                          -DROOT=__near_func -DMAC_CFG_APP_PENDING_QUEUE=TRU #
#                          E -DMAC_CFG_TX_DATA_MAX=5 -DMAC_CFG_TX_MAX=8       #
#                          -DMAC_CFG_RX_MAX=5 -DZDO_COORDINATOR -DRTR_NWK)    #
#                          -f "C:\Users\li\Desktop\ZStack-2.5.1a -            #
#                          副本\Projects\zstack\Samples\SampleApp\CC2530DB\.. #
#                          \..\..\Tools\CC2530DB\f8wConfig.cfg" (-DZIGBEEPRO  #
#                          -DSECURE=0 -DZG_SECURE_DYNAMIC=0 -DREFLECTOR       #
#                          -DDEFAULT_CHANLIST=0x00000800                      #
#                          -DZDAPP_CONFIG_PAN_ID=0xFFFF                       #
#                          -DNWK_START_DELAY=100 -DEXTENDED_JOINING_RANDOM_MA #
#                          SK=0x007F -DBEACON_REQUEST_DELAY=100               #
#                          -DBEACON_REQ_DELAY_MASK=0x00FF                     #
#                          -DLINK_STATUS_JITTER_MASK=0x007F                   #
#                          -DROUTE_EXPIRY_TIME=30 -DAPSC_ACK_WAIT_DURATION_PO #
#                          LLED=3000 -DNWK_INDIRECT_MSG_TIMEOUT=7             #
#                          -DMAX_RREQ_ENTRIES=8 -DAPSC_MAX_FRAME_RETRIES=3    #
#                          -DNWK_MAX_DATA_RETRIES=2                           #
#                          -DMAX_POLL_FAILURE_RETRIES=2 -DMAX_BCAST=9         #
#                          -DAPS_MAX_GROUPS=16 -DMAX_RTG_ENTRIES=40           #
#                          -DNWK_MAX_BINDING_ENTRIES=4                        #
#                          -DMAX_BINDING_CLUSTER_IDS=4 "-DDEFAULT_KEY={0x01,  #
#                          0x03, 0x05, 0x07, 0x09, 0x0B, 0x0D, 0x0F, 0x00,    #
#                          0x02, 0x04, 0x06, 0x08, 0x0A, 0x0C, 0x0D}"         #
#                          -DMAC_MAX_FRAME_SIZE=116                           #
#                          -DZDNWKMGR_MIN_TRANSMISSIONS=20 "-DCONST=const     #
#                          __code" -DGENERIC=__generic                        #
#                          -DRFD_RCVC_ALWAYS_ON=FALSE -DPOLL_RATE=1000        #
#                          -DQUEUED_POLL_RATE=100 -DRESPONSE_POLL_RATE=100)   #
#                          -DREJOIN_POLL_RATE=440 "C:\Users\li\Desktop\ZStack #
#                          -2.5.1a - 副本\Projects\zstack\Samples\SampleApp\S #
#                          ource\SampleApp.c" -D ZTOOL_P1 -D MT_TASK -D       #
#                          MT_SYS_FUNC -D MT_ZDO_FUNC -D LCD_SUPPORTED=DEBUG  #
#                          -lC "C:\Users\li\Desktop\ZStack-2.5.1a -           #
#                          副本\Projects\zstack\Samples\SampleApp\CC2530DB\Co #
#                          ordinatorEB\List\" -lA "C:\Users\li\Desktop\ZStack #
#                          -2.5.1a - 副本\Projects\zstack\Samples\SampleApp\C #
#                          C2530DB\CoordinatorEB\List\" --diag_suppress       #
#                          Pe001,Pa010 -o "C:\Users\li\Desktop\ZStack-2.5.1a  #
#                          - 副本\Projects\zstack\Samples\SampleApp\CC2530DB\ #
#                          CoordinatorEB\Obj\" -e --no_code_motion --debug    #
#                          --core=plain --dptr=16,1 --data_model=large        #
#                          --code_model=banked --calling_convention=xdata_ree #
#                          ntrant --place_constants=data_rom                  #
#                          --nr_virtual_regs 16 -I "C:\Users\li\Desktop\ZStac #
#                          k-2.5.1a - 副本\Projects\zstack\Samples\SampleApp\ #
#                          CC2530DB\" -I "C:\Users\li\Desktop\ZStack-2.5.1a   #
#                          - 副本\Projects\zstack\Samples\SampleApp\CC2530DB\ #
#                          ..\Source\" -I "C:\Users\li\Desktop\ZStack-2.5.1a  #
#                          - 副本\Projects\zstack\Samples\SampleApp\CC2530DB\ #
#                          ..\..\..\ZMain\TI2530DB\" -I                       #
#                          "C:\Users\li\Desktop\ZStack-2.5.1a -               #
#                          副本\Projects\zstack\Samples\SampleApp\CC2530DB\.. #
#                          \..\..\..\..\Components\hal\include\" -I           #
#                          "C:\Users\li\Desktop\ZStack-2.5.1a -               #
#                          副本\Projects\zstack\Samples\SampleApp\CC2530DB\.. #
#                          \..\..\..\..\Components\hal\target\CC2530EB\" -I   #
#                          "C:\Users\li\Desktop\ZStack-2.5.1a -               #
#                          副本\Projects\zstack\Samples\SampleApp\CC2530DB\.. #
#                          \..\..\..\..\Components\mac\include\" -I           #
#                          "C:\Users\li\Desktop\ZStack-2.5.1a -               #
#                          副本\Projects\zstack\Samples\SampleApp\CC2530DB\.. #
#                          \..\..\..\..\Components\mac\high_level\" -I        #
#                          "C:\Users\li\Desktop\ZStack-2.5.1a -               #
#                          副本\Projects\zstack\Samples\SampleApp\CC2530DB\.. #
#                          \..\..\..\..\Components\mac\low_level\srf04\" -I   #
#                          "C:\Users\li\Desktop\ZStack-2.5.1a -               #
#                          副本\Projects\zstack\Samples\SampleApp\CC2530DB\.. #
#                          \..\..\..\..\Components\mac\low_level\srf04\single #
#                          _chip\" -I "C:\Users\li\Desktop\ZStack-2.5.1a -    #
#                          副本\Projects\zstack\Samples\SampleApp\CC2530DB\.. #
#                          \..\..\..\..\Components\mt\" -I                    #
#                          "C:\Users\li\Desktop\ZStack-2.5.1a -               #
#                          副本\Projects\zstack\Samples\SampleApp\CC2530DB\.. #
#                          \..\..\..\..\Components\osal\include\" -I          #
#                          "C:\Users\li\Desktop\ZStack-2.5.1a -               #
#                          副本\Projects\zstack\Samples\SampleApp\CC2530DB\.. #
#                          \..\..\..\..\Components\services\saddr\" -I        #
#                          "C:\Users\li\Desktop\ZStack-2.5.1a -               #
#                          副本\Projects\zstack\Samples\SampleApp\CC2530DB\.. #
#                          \..\..\..\..\Components\services\sdata\" -I        #
#                          "C:\Users\li\Desktop\ZStack-2.5.1a -               #
#                          副本\Projects\zstack\Samples\SampleApp\CC2530DB\.. #
#                          \..\..\..\..\Components\stack\af\" -I              #
#                          "C:\Users\li\Desktop\ZStack-2.5.1a -               #
#                          副本\Projects\zstack\Samples\SampleApp\CC2530DB\.. #
#                          \..\..\..\..\Components\stack\nwk\" -I             #
#                          "C:\Users\li\Desktop\ZStack-2.5.1a -               #
#                          副本\Projects\zstack\Samples\SampleApp\CC2530DB\.. #
#                          \..\..\..\..\Components\stack\sapi\" -I            #
#                          "C:\Users\li\Desktop\ZStack-2.5.1a -               #
#                          副本\Projects\zstack\Samples\SampleApp\CC2530DB\.. #
#                          \..\..\..\..\Components\stack\sec\" -I             #
#                          "C:\Users\li\Desktop\ZStack-2.5.1a -               #
#                          副本\Projects\zstack\Samples\SampleApp\CC2530DB\.. #
#                          \..\..\..\..\Components\stack\sys\" -I             #
#                          "C:\Users\li\Desktop\ZStack-2.5.1a -               #
#                          副本\Projects\zstack\Samples\SampleApp\CC2530DB\.. #
#                          \..\..\..\..\Components\stack\zdo\" -I             #
#                          "C:\Users\li\Desktop\ZStack-2.5.1a -               #
#                          副本\Projects\zstack\Samples\SampleApp\CC2530DB\.. #
#                          \..\..\..\..\Components\zmac\" -I                  #
#                          "C:\Users\li\Desktop\ZStack-2.5.1a -               #
#                          副本\Projects\zstack\Samples\SampleApp\CC2530DB\.. #
#                          \..\..\..\..\Components\zmac\f8w\" -Ohz            #
#                          --require_prototypes                               #
#    List file          =  C:\Users\li\Desktop\ZStack-2.5.1a -                #
#                          副本\Projects\zstack\Samples\SampleApp\CC2530DB\Co #
#                          ordinatorEB\List\SampleApp.lst                     #
#    Object file        =  C:\Users\li\Desktop\ZStack-2.5.1a -                #
#                          副本\Projects\zstack\Samples\SampleApp\CC2530DB\Co #
#                          ordinatorEB\Obj\SampleApp.r51                      #
#                                                                             #
#                                                                             #
###############################################################################

C:\Users\li\Desktop\ZStack-2.5.1a - 副本\Projects\zstack\Samples\SampleApp\Source\SampleApp.c
      1          /**************************************************************************************************
      2            Filename:       SampleApp.c
      3            Revised:        $Date: 2009-03-18 15:56:27 -0700 (Wed, 18 Mar 2009) $
      4            Revision:       $Revision: 19453 $
      5          
      6            Description:    Sample Application (no Profile).
      7          
      8          
      9            Copyright 2007 Texas Instruments Incorporated. All rights reserved.
     10          
     11            IMPORTANT: Your use of this Software is limited to those specific rights
     12            granted under the terms of a software license agreement between the user
     13            who downloaded the software, his/her employer (which must be your employer)
     14            and Texas Instruments Incorporated (the "License").  You may not use this
     15            Software unless you agree to abide by the terms of the License. The License
     16            limits your use, and you acknowledge, that the Software may not be modified,
     17            copied or distributed unless embedded on a Texas Instruments microcontroller
     18            or used solely and exclusively in conjunction with a Texas Instruments radio
     19            frequency transceiver, which is integrated into your product.  Other than for
     20            the foregoing purpose, you may not use, reproduce, copy, prepare derivative
     21            works of, modify, distribute, perform, display or sell this Software and/or
     22            its documentation for any purpose.
     23          
     24            YOU FURTHER ACKNOWLEDGE AND AGREE THAT THE SOFTWARE AND DOCUMENTATION ARE
     25            PROVIDED AS IS?WITHOUT WARRANTY OF ANY KIND, EITHER EXPRESS OR IMPLIED,
     26            INCLUDING WITHOUT LIMITATION, ANY WARRANTY OF MERCHANTABILITY, TITLE,
     27            NON-INFRINGEMENT AND FITNESS FOR A PARTICULAR PURPOSE. IN NO EVENT SHALL
     28            TEXAS INSTRUMENTS OR ITS LICENSORS BE LIABLE OR OBLIGATED UNDER CONTRACT,
     29            NEGLIGENCE, STRICT LIABILITY, CONTRIBUTION, BREACH OF WARRANTY, OR OTHER
     30            LEGAL EQUITABLE THEORY ANY DIRECT OR INDIRECT DAMAGES OR EXPENSES
     31            INCLUDING BUT NOT LIMITED TO ANY INCIDENTAL, SPECIAL, INDIRECT, PUNITIVE
     32            OR CONSEQUENTIAL DAMAGES, LOST PROFITS OR LOST DATA, COST OF PROCUREMENT
     33            OF SUBSTITUTE GOODS, TECHNOLOGY, SERVICES, OR ANY CLAIMS BY THIRD PARTIES
     34            (INCLUDING BUT NOT LIMITED TO ANY DEFENSE THEREOF), OR OTHER SIMILAR COSTS.
     35          
     36            Should you have any questions regarding your right to use this Software,
     37            contact Texas Instruments Incorporated at www.TI.com.
     38          **************************************************************************************************/
     39          
     40          /*********************************************************************
     41            This application isn't intended to do anything useful, it is
     42            intended to be a simple example of an application's structure.
     43          
     44            This application sends it's messages either as broadcast or
     45            broadcast filtered group messages.  The other (more normal)
     46            message addressing is unicast.  Most of the other sample
     47            applications are written to support the unicast message model.
     48          
     49            Key control:
     50              SW1:  Sends a flash command to all devices in Group 1.
     51              SW2:  Adds/Removes (toggles) this device in and out
     52                    of Group 1.  This will enable and disable the
     53                    reception of the flash command.
     54          *********************************************************************/
     55          
     56          /*********************************************************************
     57           * INCLUDES
     58           */
     59          #include "OSAL.h"
     60          #include "ZGlobals.h"
     61          #include "AF.h"
     62          #include "aps_groups.h"
     63          #include "ZDApp.h"
     64          
     65          #include "SampleApp.h"
     66          #include "SampleAppHw.h"
     67          
     68          #include "OnBoard.h"

   \                                 In  segment SFR_AN, at 0x9e
   \   unsigned char volatile __sfr CLKCONSTA
   \                     CLKCONSTA:
   \   000000                DS 1

   \                                 In  segment SFR_AN, at 0xa8
   \   union <unnamed> volatile __sfr _A_IEN0
   \                     _A_IEN0:
   \   000000                DS 1

   \                                 In  segment SFR_AN, at 0xb8
   \   union <unnamed> volatile __sfr _A_IEN1
   \                     _A_IEN1:
   \   000000                DS 1

   \                                 In  segment SFR_AN, at 0xc0
   \   union <unnamed> volatile __sfr _A_IRCON
   \                     _A_IRCON:
   \   000000                DS 1

   \                                 In  segment SFR_AN, at 0xc6
   \   unsigned char volatile __sfr CLKCONCMD
   \                     CLKCONCMD:
   \   000000                DS 1

   \                                 In  segment SFR_AN, at 0xcb
   \   unsigned char volatile __sfr T3CTL
   \                     T3CTL:
   \   000000                DS 1

   \                                 In  segment SFR_AN, at 0xda
   \   unsigned char volatile __sfr T1CC0L
   \                     T1CC0L:
   \   000000                DS 1

   \                                 In  segment SFR_AN, at 0xdb
   \   unsigned char volatile __sfr T1CC0H
   \                     T1CC0H:
   \   000000                DS 1

   \                                 In  segment SFR_AN, at 0xe4
   \   unsigned char volatile __sfr T1CTL
   \                     T1CTL:
   \   000000                DS 1

   \                                 In  segment SFR_AN, at 0xf1
   \   unsigned char volatile __sfr PERCFG
   \                     PERCFG:
   \   000000                DS 1

   \                                 In  segment SFR_AN, at 0xf3
   \   unsigned char volatile __sfr P0SEL
   \                     P0SEL:
   \   000000                DS 1

   \                                 In  segment SFR_AN, at 0xf5
   \   unsigned char volatile __sfr P2SEL
   \                     P2SEL:
   \   000000                DS 1

   \                                 In  segment SFR_AN, at 0xfd
   \   unsigned char volatile __sfr P0DIR
   \                     P0DIR:
   \   000000                DS 1

   \                                 In  segment SFR_AN, at 0xff
   \   unsigned char volatile __sfr P2DIR
   \                     P2DIR:
   \   000000                DS 1
     69          
     70          /* HAL */
     71          #include "hal_lcd.h"
     72          #include "hal_led.h"
     73          #include "hal_key.h"
     74          #include "MT_UART.h"
     75          #include "MT_APP.h"
     76          #include "MT.h"
     77          #include "stdlib.h"
     78          
     79          /*********************************************************************
     80           * MACROS
     81           */
     82          
     83          /*********************************************************************
     84           * CONSTANTS
     85           */
     86          
     87          /*********************************************************************
     88           * TYPEDEFS
     89           */
     90          
     91          /*********************************************************************
     92           * GLOBAL VARIABLES
     93           */

   \                                 In  segment XDATA_I, align 1, keep-with-next
     94          uint8 AppTitle[] = "ALD2530 LED"; //应用程序名称
   \                     AppTitle:
   \   000000                DS 12
   \   00000C                REQUIRE `?<Initializer for AppTitle>`
   \   00000C                REQUIRE __INIT_XDATA_I
     95          
     96          // This list should be filled with Application specific Cluster IDs.

   \                                 In  segment XDATA_ROM_C, align 1
     97          const cId_t SampleApp_ClusterList[SAMPLEAPP_MAX_CLUSTERS] =
   \                     SampleApp_ClusterList:
   \   000000   0100         DW 1
   \   000002   0200         DW 2
   \   000004   0300         DW 3
     98          {
     99            SAMPLEAPP_PERIODIC_CLUSTERID,
    100            SAMPLEAPP_FLASH_CLUSTERID,
    101            SAMPLEAPP_SINGLE_CLUSTERID
    102          };
    103          

   \                                 In  segment XDATA_ROM_C, align 1
    104          const SimpleDescriptionFormat_t SampleApp_SimpleDesc =
   \                     SampleApp_SimpleDesc:
   \   000000   14           DB 20
   \   000001   080F         DW 3848
   \   000003   0100         DW 1
   \   000005   00           DB 0
   \   000006   03           DB 3
   \   000007   ....         DW SampleApp_ClusterList
   \   000009   03           DB 3
   \   00000A   ....         DW SampleApp_ClusterList
    105          {
    106            SAMPLEAPP_ENDPOINT,              //  int Endpoint;
    107            SAMPLEAPP_PROFID,                //  uint16 AppProfId[2];
    108            SAMPLEAPP_DEVICEID,              //  uint16 AppDeviceId[2];
    109            SAMPLEAPP_DEVICE_VERSION,        //  int   AppDevVer:4;
    110            SAMPLEAPP_FLAGS,                 //  int   AppFlags:4;
    111            SAMPLEAPP_MAX_CLUSTERS,          //  uint8  AppNumInClusters;
    112            (cId_t *)SampleApp_ClusterList,  //  uint8 *pAppInClusterList;
    113            SAMPLEAPP_MAX_CLUSTERS,          //  uint8  AppNumInClusters;
    114            (cId_t *)SampleApp_ClusterList   //  uint8 *pAppInClusterList;
    115          };
    116          
    117          // This is the Endpoint/Interface description.  It is defined here, but
    118          // filled-in in SampleApp_Init().  Another way to go would be to fill
    119          // in the structure here and make it a "const" (in code space).  The
    120          // way it's defined in this sample app it is define in RAM.

   \                                 In  segment XDATA_Z, align 1, keep-with-next
    121          endPointDesc_t SampleApp_epDesc;
   \                     SampleApp_epDesc:
   \   000000                DS 6
   \   000006                REQUIRE __INIT_XDATA_Z
    122          
    123          /*********************************************************************
    124           * EXTERNAL VARIABLES
    125           */
    126          
    127          /*********************************************************************
    128           * EXTERNAL FUNCTIONS
    129           */
    130          
    131          /*********************************************************************
    132           * LOCAL VARIABLES
    133           */

   \                                 In  segment XDATA_Z, align 1, keep-with-next
    134          uint8 SampleApp_TaskID;   // Task ID for internal task/event processing
   \                     SampleApp_TaskID:
   \   000000                DS 1
   \   000001                REQUIRE __INIT_XDATA_Z
    135                                    // This variable will be received when
    136                                    // SampleApp_Init() is called.

   \                                 In  segment XDATA_Z, align 1, keep-with-next
    137          devStates_t SampleApp_NwkState;
   \                     SampleApp_NwkState:
   \   000000                DS 1
   \   000001                REQUIRE __INIT_XDATA_Z
    138          

   \                                 In  segment XDATA_Z, align 1, keep-with-next
    139          uint8 SampleApp_TransID;  // This is the unique message ID (counter)
   \                     SampleApp_TransID:
   \   000000                DS 1
   \   000001                REQUIRE __INIT_XDATA_Z
    140          

   \                                 In  segment XDATA_Z, align 1, keep-with-next
    141          afAddrType_t SampleApp_Periodic_DstAddr;
   \                     SampleApp_Periodic_DstAddr:
   \   000000                DS 12
   \   00000C                REQUIRE __INIT_XDATA_Z

   \                                 In  segment XDATA_Z, align 1, keep-with-next
    142          afAddrType_t SampleApp_Single_DstAddr;
   \                     SampleApp_Single_DstAddr:
   \   000000                DS 12
   \   00000C                REQUIRE __INIT_XDATA_Z

   \                                 In  segment XDATA_Z, align 1, keep-with-next
    143          afAddrType_t SampleApp_Flash_DstAddr;
   \                     SampleApp_Flash_DstAddr:
   \   000000                DS 12
   \   00000C                REQUIRE __INIT_XDATA_Z
    144          

   \                                 In  segment XDATA_Z, align 1, keep-with-next
    145          aps_Group_t SampleApp_Group;
   \                     SampleApp_Group:
   \   000000                DS 18
   \   000012                REQUIRE __INIT_XDATA_Z
    146          

   \                                 In  segment XDATA_Z, align 1, keep-with-next
    147          uint8 SampleAppPeriodicCounter = 0;
   \                     SampleAppPeriodicCounter:
   \   000000                DS 1
   \   000001                REQUIRE __INIT_XDATA_Z

   \                                 In  segment XDATA_Z, align 1, keep-with-next
    148          uint8 SampleAppFlashCounter = 0;
   \                     SampleAppFlashCounter:
   \   000000                DS 1
   \   000001                REQUIRE __INIT_XDATA_Z
    149          

   \                                 In  segment XDATA_Z, align 1, keep-with-next
    150          uint16 device[32] = {0};
   \                     device:
   \   000000                DS 64
   \   000040                REQUIRE __INIT_XDATA_Z

   \                                 In  segment XDATA_Z, align 1, keep-with-next
    151          int sel_dev = 0;
   \                     sel_dev:
   \   000000                DS 2
   \   000002                REQUIRE __INIT_XDATA_Z

   \                                 In  segment XDATA_I, align 1, keep-with-next
    152          int main_flag = 1;
   \                     main_flag:
   \   000000                DS 2
   \   000002                REQUIRE `?<Initializer for main_flag>`
   \   000002                REQUIRE __INIT_XDATA_I

   \                                 In  segment XDATA_Z, align 1, keep-with-next
    153          int beep_flag = 0;
   \                     beep_flag:
   \   000000                DS 2
   \   000002                REQUIRE __INIT_XDATA_Z

   \                                 In  segment XDATA_Z, align 1, keep-with-next
    154          int time_flag = 0;
   \                     time_flag:
   \   000000                DS 2
   \   000002                REQUIRE __INIT_XDATA_Z

   \                                 In  segment XDATA_Z, align 1, keep-with-next
    155          int distance_flag = 0;
   \                     distance_flag:
   \   000000                DS 2
   \   000002                REQUIRE __INIT_XDATA_Z

   \                                 In  segment XDATA_Z, align 1, keep-with-next
    156          int count = 0;
   \                     count:
   \   000000                DS 2
   \   000002                REQUIRE __INIT_XDATA_Z

   \                                 In  segment XDATA_Z, align 1, keep-with-next
    157          int period_count = 0;
   \                     period_count:
   \   000000                DS 2
   \   000002                REQUIRE __INIT_XDATA_Z

   \                                 In  segment XDATA_Z, align 1, keep-with-next
    158          int device_num = 0;
   \                     device_num:
   \   000000                DS 2
   \   000002                REQUIRE __INIT_XDATA_Z

   \                                 In  segment XDATA_Z, align 1, keep-with-next
    159          uint16 dst_dev = 0x0000;
   \                     dst_dev:
   \   000000                DS 2
   \   000002                REQUIRE __INIT_XDATA_Z
    160          
    161          /*********************************************************************
    162           * LOCAL FUNCTIONS
    163           */
    164          void SampleApp_HandleKeys( uint8 shift, uint8 keys );
    165          void SampleApp_MessageMSGCB( afIncomingMSGPacket_t *pckt );
    166          void SampleApp_SendPeriodicMessage( void );
    167          void SampleApp_SendFlashMessage( uint16 flashTime ,uint16 data);
    168          void SApp_ProcessMsgCBs( zdoIncomingMsg_t *msgPtr );
    169          void SampleApp_SendAddrMessage(uint8 dev[], int dev_num);
    170          void SampleApp_SendBeepMessage(uint16 dst, uint8 s);
    171          
    172          
    173          
    174          void InitT1(void);
    175          void InitT3(void);
    176          __interrupt void T3_ISR(void);
    177          void beep0(void);
    178          void beep1(void);
    179          void beep2(void);
    180          
    181          
    182          /*********************************************************************
    183           * NETWORK LAYER CALLBACKS
    184           */
    185          
    186          /*********************************************************************
    187           * PUBLIC FUNCTIONS
    188           */
    189          
    190          /*********************************************************************
    191           * @fn      SampleApp_Init
    192           *
    193           * @brief   Initialization function for the Generic App Task.
    194           *          This is called during initialization and should contain
    195           *          any application specific initialization (ie. hardware
    196           *          initialization/setup, table initialization, power up
    197           *          notificaiton ... ).
    198           *
    199           * @param   task_id - the ID assigned by OSAL.  This ID should be
    200           *                    used to send messages and set timers.
    201           *
    202           * @return  none
    203           */
    204          #define BEEP P0_7  //蜂鸣器；
    205          
    206          
    207          
    208          /****************************************************************************
    209          * 名    称: InitLed()
    210          * 功    能: 设置LED灯相应的IO口
    211          * 入口参数: 无
    212          * 出口参数: 无
    213          ****************************************************************************/
    214          
    215          /****************************************************************************
    216          * 名    称: InitT1()
    217          * 功    能: 定时器初始化，TICKSPD 是16 MHz系统不配置时默认是2分频，即16MHz
    218          * 入口参数: 无
    219          * 出口参数: 无
    220          ****************************************************************************/
    221          
    222          

   \                                 In  segment BANKED_CODE, align 1, keep-with-next
    223          void InitT1(void)
   \                     InitT1:
    224          {
   \   000000   C082         PUSH    DPL
   \   000002   C083         PUSH    DPH
   \   000004                ; Saved register size: 2
   \   000004                ; Auto size: 0
    225              CLKCONCMD &= ~0x40;      //设置系统时钟源为32MHZ晶振
   \   000004   53C6BF       ANL     0xc6,#0xbf
    226              while(CLKCONSTA & 0x40); //等待晶振稳定为32M
   \                     ??InitT1_0:
   \   000007   E59E         MOV     A,0x9e
   \   000009   A2E6         MOV     C,0xE0 /* A   */.6
   \   00000B   40FA         JC      ??InitT1_0
    227              CLKCONCMD &= ~0x07;      //设置系统主时钟频率为32MHZ   
   \   00000D   53C6F8       ANL     0xc6,#0xf8
    228              CLKCONCMD |= 0x38;       //时钟速度32 MHz 定时器标记输出设置[5:3]250kHz
   \   000010   43C638       ORL     0xc6,#0x38
    229          
    230              PERCFG |= 0x40;          //定时器1 的IO位置   1:备用位置2 
   \   000013   43F140       ORL     0xf1,#0x40
    231              P2SEL &= ~0x10;          //定时器1优先
   \   000016   53F5EF       ANL     0xf5,#0xef
    232              P2DIR |= 0xC0;           //第1优先级：定时器1通道2-3
   \   000019   43FFC0       ORL     0xff,#0xc0
    233          
    234              P0DIR |= 0x80;           //端口1为输出    
   \   00001C   43FD80       ORL     0xfd,#0x80
    235              P0SEL |= 0x80;           //timer1 通道2映射口P1_0
   \   00001F   43F380       ORL     0xf3,#0x80
    236              
    237              T1CC3H = 0x00;           //20%占空比为200us
   \   000022   9062AD       MOV     DPTR,#0x62ad
   \   000025   E4           CLR     A
   \   000026   F0           MOVX    @DPTR,A
    238              T1CC3L = 0x00;           //修改T1CC2L可调整led的亮度
   \   000027   9062AC       MOV     DPTR,#0x62ac
   \   00002A   F0           MOVX    @DPTR,A
    239              T1CC0H = 0x00;           //1ms的周期时钟,频率为976.516HZ
   \   00002B   75DB00       MOV     0xdb,#0x0
    240              T1CC0L = 0x00; 
   \   00002E   75DA00       MOV     0xda,#0x0
    241              T1CCTL3 = 0x34;          // 模式选择 通道2比较模式
   \   000031   9062A3       MOV     DPTR,#0x62a3
   \   000034   7434         MOV     A,#0x34
   \   000036   F0           MOVX    @DPTR,A
    242              T1CTL |= 0x03;            //250KHz 1分频
   \   000037   43E403       ORL     0xe4,#0x3
    243            
    244          }
   \   00003A   D083         POP     DPH
   \   00003C   D082         POP     DPL
   \   00003E   02....       LJMP    ?BRET
   \   000041                REQUIRE CLKCONCMD
   \   000041                REQUIRE CLKCONSTA
   \   000041                REQUIRE PERCFG
   \   000041                REQUIRE P2SEL
   \   000041                REQUIRE P2DIR
   \   000041                REQUIRE P0DIR
   \   000041                REQUIRE P0SEL
   \   000041                REQUIRE T1CC0H
   \   000041                REQUIRE T1CC0L
   \   000041                REQUIRE T1CTL
    245          

   \                                 In  segment BANKED_CODE, align 1, keep-with-next
    246          void InitT3(void)
   \                     InitT3:
    247          {     
   \   000000                ; Saved register size: 0
   \   000000                ; Auto size: 0
    248              T3CTL |= 0x08 ;          //开溢出中断     
   \   000000   43CB08       ORL     0xcb,#0x8
    249              T3IE = 1;                //开总中断和T3中断
   \   000003   D2BB         SETB    0xb8.3
    250              T3CTL |= 0xE0;           //128分频,128/16000000*N=0.5S,N=62500
   \   000005   43CBE0       ORL     0xcb,#0xe0
    251              T3CTL &= ~0x03;          //自动重装 00－>0xff  62500/255=245(次)
   \   000008   53CBFC       ANL     0xcb,#0xfc
    252              T3CTL |= 0x10;           //启动
   \   00000B   43CB10       ORL     0xcb,#0x10
    253              EA = 1;                  //开总中断
   \   00000E   D2AF         SETB    0xa8.7
    254          }
   \   000010   02....       LJMP    ?BRET
   \   000013                REQUIRE T3CTL
   \   000013                REQUIRE _A_IEN1
   \   000013                REQUIRE _A_IEN0
    255          #pragma vector = T3_VECTOR 

   \                                 In  segment NEAR_CODE, align 1, keep-with-next
    256          __interrupt void T3_ISR(void) 
   \                     T3_ISR:
    257          { 
   \   000000   C0E0         PUSH    A
   \   000002   C0D0         PUSH    PSW
   \   000004   E8           MOV     A,R0
   \   000005   C0E0         PUSH    A
   \   000007   E9           MOV     A,R1
   \   000008   C0E0         PUSH    A
   \   00000A   EA           MOV     A,R2
   \   00000B   C0E0         PUSH    A
   \   00000D   EB           MOV     A,R3
   \   00000E   C0E0         PUSH    A
   \   000010   C082         PUSH    DPL
   \   000012   C083         PUSH    DPH
   \   000014                ; Saved register size: 8
   \   000014                ; Auto size: 0
    258            
    259            
    260              IRCON = 0x00;            //清中断标志, 也可由硬件自动完成 
   \   000014   75C000       MOV     0xc0,#0x0
    261              
    262              
    263              if(period_count++ > 150)
   \   000017   90....       MOV     DPTR,#period_count
   \   00001A   12....       LCALL   ?Subroutine15
   \                     ??CrossCallReturnLabel_17:
   \   00001D   90....       MOV     DPTR,#period_count
   \   000020   EA           MOV     A,R2
   \   000021   F0           MOVX    @DPTR,A
   \   000022   A3           INC     DPTR
   \   000023   EB           MOV     A,R3
   \   000024   F0           MOVX    @DPTR,A
   \   000025   C3           CLR     C
   \   000026   E8           MOV     A,R0
   \   000027   9497         SUBB    A,#-0x69
   \   000029   E9           MOV     A,R1
   \   00002A   9400         SUBB    A,#0x0
   \   00002C   A2D2         MOV     C,0xD0 /* PSW */.2
   \   00002E   65D0         XRL     A,PSW
   \   000030   33           RLC     A
   \   000031   4007         JC      ??T3_ISR_0
    264              {
    265                	period_count = 0;
   \   000033   90....       MOV     DPTR,#period_count
   \   000036   E4           CLR     A
   \   000037   F0           MOVX    @DPTR,A
   \   000038   A3           INC     DPTR
   \   000039   F0           MOVX    @DPTR,A
    266              }
    267                
    268                
    269              if(count++ > 2)          //245次中断后LED取反，闪烁一轮（约为0.5 秒时间） 
   \                     ??T3_ISR_0:
   \   00003A   90....       MOV     DPTR,#count
   \   00003D   12....       LCALL   ?Subroutine15
   \                     ??CrossCallReturnLabel_18:
   \   000040   90....       MOV     DPTR,#count
   \   000043   EA           MOV     A,R2
   \   000044   F0           MOVX    @DPTR,A
   \   000045   A3           INC     DPTR
   \   000046   EB           MOV     A,R3
   \   000047   F0           MOVX    @DPTR,A
   \   000048   C3           CLR     C
   \   000049   E8           MOV     A,R0
   \   00004A   9403         SUBB    A,#0x3
   \   00004C   E9           MOV     A,R1
   \   00004D   9400         SUBB    A,#0x0
   \   00004F   A2D2         MOV     C,0xD0 /* PSW */.2
   \   000051   65D0         XRL     A,PSW
   \   000053   33           RLC     A
   \   000054   403A         JC      ??T3_ISR_1
    270              {                        //经过示波器测量确保精确
    271                  count = 0;          //计数清零          //改变LED1的状态
   \   000056   90....       MOV     DPTR,#count
   \   000059   E4           CLR     A
   \   00005A   F0           MOVX    @DPTR,A
   \   00005B   A3           INC     DPTR
   \   00005C   F0           MOVX    @DPTR,A
    272          	
    273          	if(beep_flag == 1)
   \   00005D   90....       MOV     DPTR,#beep_flag
   \   000060   E0           MOVX    A,@DPTR
   \   000061   6401         XRL     A,#0x1
   \   000063   7002         JNZ     ??T3_ISR_2
   \   000065   A3           INC     DPTR
   \   000066   E0           MOVX    A,@DPTR
   \                     ??T3_ISR_2:
   \   000067   7027         JNZ     ??T3_ISR_1
    274          		if(time_flag == 0)
   \   000069   90....       MOV     DPTR,#time_flag
   \   00006C   E0           MOVX    A,@DPTR
   \   00006D   F8           MOV     R0,A
   \   00006E   A3           INC     DPTR
   \   00006F   E0           MOVX    A,@DPTR
   \   000070   F9           MOV     R1,A
   \   000071   E8           MOV     A,R0
   \   000072   49           ORL     A,R1
   \   000073   90....       MOV     DPTR,#time_flag
   \   000076   700E         JNZ     ??T3_ISR_3
    275          		{
    276          			time_flag = 1;
   \   000078   7401         MOV     A,#0x1
   \   00007A   F0           MOVX    @DPTR,A
   \   00007B   A3           INC     DPTR
   \   00007C   E4           CLR     A
   \   00007D   F0           MOVX    @DPTR,A
    277          			beep1();
   \   00007E   75DB00       MOV     0xdb,#0x0
   \   000081   75DAFF       MOV     0xda,#-0x1
    278          		}
   \   000084   800A         SJMP    ??T3_ISR_1
    279          		else
    280          		{
    281          			time_flag = 0;
   \                     ??T3_ISR_3:
   \   000086   E4           CLR     A
   \   000087   F0           MOVX    @DPTR,A
   \   000088   A3           INC     DPTR
   \   000089   F0           MOVX    @DPTR,A
    282          			beep0();
   \   00008A   75DB00       MOV     0xdb,#0x0
   \   00008D   75DA00       MOV     0xda,#0x0
    283          		}
    284              } 
    285          }
   \                     ??T3_ISR_1:
   \   000090   D083         POP     DPH
   \   000092   D082         POP     DPL
   \   000094   D0E0         POP     A
   \   000096   FB           MOV     R3,A
   \   000097   D0E0         POP     A
   \   000099   FA           MOV     R2,A
   \   00009A   D0E0         POP     A
   \   00009C   F9           MOV     R1,A
   \   00009D   D0E0         POP     A
   \   00009F   F8           MOV     R0,A
   \   0000A0   D0D0         POP     PSW
   \   0000A2   D0E0         POP     A
   \   0000A4   32           RETI
   \   0000A5                REQUIRE _A_IRCON
   \   0000A5                REQUIRE T1CC0H
   \   0000A5                REQUIRE T1CC0L

   \                                 In  segment NEAR_CODE, align 1, keep-with-next
   \                     ?Subroutine15:
   \   000000   E0           MOVX    A,@DPTR
   \   000001   F8           MOV     R0,A
   \   000002   A3           INC     DPTR
   \   000003   E0           MOVX    A,@DPTR
   \   000004   F9           MOV     R1,A
   \   000005   E8           MOV     A,R0
   \   000006   2401         ADD     A,#0x1
   \   000008   FA           MOV     R2,A
   \   000009   E9           MOV     A,R1
   \   00000A   3400         ADDC    A,#0x0
   \   00000C   FB           MOV     R3,A
   \   00000D   22           RET
    286          
    287          
    288          

   \                                 In  segment BANKED_CODE, align 1, keep-with-next
    289          void beep0(void)
   \                     beep0:
    290          {
   \   000000                ; Saved register size: 0
   \   000000                ; Auto size: 0
    291              T1CC0H = 0x00;           //0ms的周期时钟,频率为976.516HZ
   \   000000   75DB00       MOV     0xdb,#0x0
    292              T1CC0L = 0x00; 
   \   000003   75DA00       MOV     0xda,#0x0
    293          }
   \   000006   02....       LJMP    ?BRET
   \   000009                REQUIRE T1CC0H
   \   000009                REQUIRE T1CC0L

   \                                 In  segment BANKED_CODE, align 1, keep-with-next
    294          void beep1(void)
   \                     beep1:
    295          {
   \   000000                ; Saved register size: 0
   \   000000                ; Auto size: 0
    296              T1CC0H = 0x00;           //1ms的周期时钟,频率为976.516HZ
   \   000000   75DB00       MOV     0xdb,#0x0
    297              T1CC0L = 0xff; 
   \   000003                REQUIRE ?Subroutine0
   \   000003                REQUIRE T1CC0H
   \   000003                REQUIRE T1CC0L
   \   000003                ; // Fall through to label ?Subroutine0
    298              
    299          }

   \                                 In  segment BANKED_CODE, align 1, keep-with-next
   \                     ?Subroutine0:
   \   000000   75DAFF       MOV     0xda,#-0x1
   \   000003   02....       LJMP    ?BRET

   \                                 In  segment BANKED_CODE, align 1, keep-with-next
    300          void beep2(void)
   \                     beep2:
    301          {
   \   000000                ; Saved register size: 0
   \   000000                ; Auto size: 0
    302              T1CC0H = 0x01;           //2ms的周期时钟,频率为976.516HZ
   \   000000   75DB01       MOV     0xdb,#0x1
    303              T1CC0L = 0xff;
   \   000003   80..         SJMP    ?Subroutine0
   \   000005                REQUIRE T1CC0H
   \   000005                REQUIRE T1CC0L
    304          }
    305          
    306          
    307          

   \                                 In  segment BANKED_CODE, align 1, keep-with-next
    308          void SampleApp_Init( uint8 task_id )
   \                     SampleApp_Init:
    309          { 
   \   000000   74F5         MOV     A,#-0xb
   \   000002   12....       LCALL   ?BANKED_ENTER_XDATA
   \   000005                ; Saved register size: 11
   \   000005                ; Auto size: 0
   \   000005   E9           MOV     A,R1
    310            SampleApp_TaskID = task_id;   //osal分配的任务ID随着用户添加任务的增多而改变
   \   000006   90....       MOV     DPTR,#SampleApp_TaskID
   \   000009   F0           MOVX    @DPTR,A
    311            SampleApp_NwkState = DEV_INIT;//设备状态设定为ZDO层中定义的初始化状态
   \   00000A   90....       MOV     DPTR,#SampleApp_NwkState
   \   00000D   7401         MOV     A,#0x1
   \   00000F   F0           MOVX    @DPTR,A
    312            SampleApp_TransID = 0;        //消息发送ID（多消息时有顺序之分）
   \   000010   90....       MOV     DPTR,#SampleApp_TransID
   \   000013   E4           CLR     A
   \   000014   F0           MOVX    @DPTR,A
    313            
    314            // Device hardware initialization can be added here or in main() (Zmain.c).
    315            // If the hardware is application specific - add it here.
    316            // If the hardware is other parts of the device add it in main().
    317          
    318           #if defined ( BUILD_ALL_DEVICES )
    319            // The "Demo" target is setup to have BUILD_ALL_DEVICES and HOLD_AUTO_START
    320            // We are looking at a jumper (defined in SampleAppHw.c) to be jumpered
    321            // together - if they are - we will start up a coordinator. Otherwise,
    322            // the device will start as a router.
    323            if ( readCoordinatorJumper() )
    324              zgDeviceLogicalType = ZG_DEVICETYPE_COORDINATOR;
    325            else
    326              zgDeviceLogicalType = ZG_DEVICETYPE_ROUTER;
    327          #endif // BUILD_ALL_DEVICES
    328          
    329          //该段的意思是，如果设置了HOLD_AUTO_START宏定义，将会在启动芯片的时候会暂停启动
    330          //流程，只有外部触发以后才会启动芯片。其实就是需要一个按钮触发它的启动流程。  
    331          #if defined ( HOLD_AUTO_START )
    332            // HOLD_AUTO_START is a compile option that will surpress ZDApp
    333            //  from starting the device and wait for the application to
    334            //  start the device.
    335            ZDOInitDevice(0);
    336          #endif
    337          
    338            // Setup for the periodic message's destination address 设置发送数据的方式和目的地址寻址模式
    339            // Broadcast to everyone 发送模式:广播发送
    340            SampleApp_Periodic_DstAddr.addrMode = (afAddrMode_t)AddrBroadcast;//广播
   \   000015   90....       MOV     DPTR,#SampleApp_Periodic_DstAddr + 8
   \   000018   740F         MOV     A,#0xf
   \   00001A   F0           MOVX    @DPTR,A
    341            SampleApp_Periodic_DstAddr.endPoint = SAMPLEAPP_ENDPOINT; //指定端点号
   \   00001B   A3           INC     DPTR
   \   00001C   7414         MOV     A,#0x14
   \   00001E   F0           MOVX    @DPTR,A
    342            SampleApp_Periodic_DstAddr.addr.shortAddr = 0xFFFF;//指定目的网络地址为广播地址
   \   00001F   90....       MOV     DPTR,#SampleApp_Periodic_DstAddr
   \   000022   74FF         MOV     A,#-0x1
   \   000024   F0           MOVX    @DPTR,A
   \   000025   A3           INC     DPTR
   \   000026   F0           MOVX    @DPTR,A
    343          
    344            // Setup for the flash command's destination address - Group 1 组播发送
    345            SampleApp_Flash_DstAddr.addrMode = (afAddrMode_t)afAddrGroup; //组寻址
   \   000027   90....       MOV     DPTR,#SampleApp_Flash_DstAddr + 8
   \   00002A   7401         MOV     A,#0x1
   \   00002C   F0           MOVX    @DPTR,A
    346            SampleApp_Flash_DstAddr.endPoint = SAMPLEAPP_ENDPOINT; //指定端点号
   \   00002D   A3           INC     DPTR
   \   00002E   7414         MOV     A,#0x14
   \   000030   F0           MOVX    @DPTR,A
    347            SampleApp_Flash_DstAddr.addr.shortAddr = SAMPLEAPP_FLASH_GROUP;//组号0x0001
   \   000031   90....       MOV     DPTR,#SampleApp_Flash_DstAddr
   \   000034   12....       LCALL   ?Subroutine3 & 0xFFFF
    348            
    349            SampleApp_Single_DstAddr.addrMode = (afAddrMode_t)Addr16Bit;
   \                     ??CrossCallReturnLabel_40:
   \   000037   90....       MOV     DPTR,#SampleApp_Single_DstAddr + 8
   \   00003A   7402         MOV     A,#0x2
   \   00003C   F0           MOVX    @DPTR,A
    350            SampleApp_Single_DstAddr.endPoint = SAMPLEAPP_ENDPOINT;
   \   00003D   A3           INC     DPTR
   \   00003E   7414         MOV     A,#0x14
   \   000040   F0           MOVX    @DPTR,A
    351            SampleApp_Single_DstAddr.addr.shortAddr = 0x0000;
   \   000041   90....       MOV     DPTR,#SampleApp_Single_DstAddr
   \   000044   E4           CLR     A
   \   000045   F0           MOVX    @DPTR,A
   \   000046   A3           INC     DPTR
   \   000047   F0           MOVX    @DPTR,A
    352          
    353            // Fill out the endpoint description. 定义本设备用来通信的APS层端点描述符
    354            SampleApp_epDesc.endPoint = SAMPLEAPP_ENDPOINT; //指定端点号
   \   000048   90....       MOV     DPTR,#SampleApp_epDesc
   \   00004B   7414         MOV     A,#0x14
   \   00004D   F0           MOVX    @DPTR,A
    355            SampleApp_epDesc.task_id = &SampleApp_TaskID;   //SampleApp 描述符的任务ID
   \   00004E   A3           INC     DPTR
   \   00004F   74..         MOV     A,#SampleApp_TaskID & 0xff
   \   000051   F0           MOVX    @DPTR,A
   \   000052   A3           INC     DPTR
   \   000053   74..         MOV     A,#(SampleApp_TaskID >> 8) & 0xff
   \   000055   F0           MOVX    @DPTR,A
    356            SampleApp_epDesc.simpleDesc
    357                      = (SimpleDescriptionFormat_t *)&SampleApp_SimpleDesc;//SampleApp简单描述符
   \   000056   A3           INC     DPTR
   \   000057   74..         MOV     A,#SampleApp_SimpleDesc & 0xff
   \   000059   F0           MOVX    @DPTR,A
   \   00005A   A3           INC     DPTR
   \   00005B   74..         MOV     A,#(SampleApp_SimpleDesc >> 8) & 0xff
   \   00005D   12....       LCALL   ??Subroutine19_0 & 0xFFFF
    358            SampleApp_epDesc.latencyReq = noLatencyReqs;    //延时策略
    359          
    360            // Register the endpoint description with the AF
    361            afRegister( &SampleApp_epDesc );    //向AF层登记描述符
   \                     ??CrossCallReturnLabel_35:
   \   000060                ; Setup parameters for call to function afRegister
   \   000060   7A..         MOV     R2,#SampleApp_epDesc & 0xff
   \   000062   7B..         MOV     R3,#(SampleApp_epDesc >> 8) & 0xff
   \   000064   12....       LCALL   ??afRegister?relay
    362          
    363            // Register for all key events - This app will handle all key events
    364            RegisterForKeys( SampleApp_TaskID ); // 登记所有的按键事件
   \   000067                ; Setup parameters for call to function RegisterForKeys
   \   000067   90....       MOV     DPTR,#SampleApp_TaskID
   \   00006A   E0           MOVX    A,@DPTR
   \   00006B   F9           MOV     R1,A
   \   00006C   12....       LCALL   ??RegisterForKeys?relay
    365          
    366            // By default, all devices start out in Group 1
    367            SampleApp_Group.ID = 0x0001;//组号
   \   00006F   90....       MOV     DPTR,#SampleApp_Group
   \   000072   12....       LCALL   ?Subroutine3 & 0xFFFF
    368            osal_memcpy( SampleApp_Group.name, "Group 1", 7  );//设定组名
   \                     ??CrossCallReturnLabel_41:
   \   000075                ; Setup parameters for call to function osal_memcpy
   \   000075   75....       MOV     ?V0 + 0,#`?<Constant "Group 1">` & 0xff
   \   000078   75....       MOV     ?V0 + 1,#(`?<Constant "Group 1">` >> 8) & 0xff
   \   00007B   F5..         MOV     ?V0 + 2,A
   \   00007D   78..         MOV     R0,#?V0 + 0
   \   00007F   12....       LCALL   ?PUSH_XSTACK_I_THREE
   \   000082   7C07         MOV     R4,#0x7
   \   000084   7D00         MOV     R5,#0x0
   \   000086   7A..         MOV     R2,#(SampleApp_Group + 2) & 0xff
   \   000088   7B..         MOV     R3,#((SampleApp_Group + 2) >> 8) & 0xff
   \   00008A   12....       LCALL   ??Subroutine17_0 & 0xFFFF
   \                     ??CrossCallReturnLabel_26:
   \   00008D   12....       LCALL   ?DEALLOC_XSTACK8
    369            aps_AddGroup( SAMPLEAPP_ENDPOINT, &SampleApp_Group );//把该组登记添加到APS中
   \   000090                ; Setup parameters for call to function aps_AddGroup
   \   000090   7A..         MOV     R2,#SampleApp_Group & 0xff
   \   000092   7B..         MOV     R3,#(SampleApp_Group >> 8) & 0xff
   \   000094   7914         MOV     R1,#0x14
   \   000096   12....       LCALL   ??aps_AddGroup?relay
    370          
    371          #if defined ( LCD_SUPPORTED )
    372            HalLcdWriteString( "SampleApp", HAL_LCD_LINE_1 ); //如果支持LCD，显示提示信息
   \   000099                ; Setup parameters for call to function HalLcdWriteString
   \   000099   7900         MOV     R1,#0x0
   \   00009B   7A..         MOV     R2,#`?<Constant "SampleApp">` & 0xff
   \   00009D   7B..         MOV     R3,#(`?<Constant "SampleApp">` >> 8) & 0xff
   \   00009F   12....       LCALL   ??HalLcdWriteString?relay
    373          #endif
    374            
    375           // register for end device annce and simple descriptor responses
    376           ZDO_RegisterForZDOMsg( SampleApp_TaskID, Device_annce );
   \   0000A2                ; Setup parameters for call to function ZDO_RegisterForZDOMsg
   \   0000A2   7A13         MOV     R2,#0x13
   \   0000A4   7B00         MOV     R3,#0x0
   \   0000A6   90....       MOV     DPTR,#SampleApp_TaskID
   \   0000A9   E0           MOVX    A,@DPTR
   \   0000AA   F9           MOV     R1,A
   \   0000AB   12....       LCALL   ??ZDO_RegisterForZDOMsg?relay
    377            
    378            
    379            InitT1();
   \   0000AE                ; Setup parameters for call to function InitT1
   \   0000AE   12....       LCALL   ??InitT1?relay
    380            InitT3();
   \   0000B1                ; Setup parameters for call to function InitT3
   \   0000B1   12....       LCALL   ??InitT3?relay
    381            
    382            #if defined(ZDO_COORDINATOR)                      //协调器短地址为0000
    383            {
    384              device[0] = 0x0000;
   \   0000B4   90....       MOV     DPTR,#device
   \   0000B7   E4           CLR     A
   \   0000B8   F0           MOVX    @DPTR,A
   \   0000B9   A3           INC     DPTR
   \   0000BA   F0           MOVX    @DPTR,A
    385            }
    386            #endif
    387          }
   \   0000BB                REQUIRE ?Subroutine1
   \   0000BB                ; // Fall through to label ?Subroutine1

   \                                 In  segment BANKED_CODE, align 1, keep-with-next
   \                     ?Subroutine1:
   \   000000   7F03         MOV     R7,#0x3
   \   000002   02....       LJMP    ?BANKED_LEAVE_XDATA

   \                                 In  segment BANKED_CODE, align 1, keep-with-next
   \                     ??Subroutine17_0:
   \   000000   12....       LCALL   ??osal_memcpy?relay
   \   000003   7403         MOV     A,#0x3
   \   000005   22           RET

   \                                 In  segment BANKED_CODE, align 1, keep-with-next
   \                     ?Subroutine3:
   \   000000   7401         MOV     A,#0x1
   \   000002                REQUIRE ??Subroutine19_0
   \   000002                ; // Fall through to label ??Subroutine19_0

   \                                 In  segment BANKED_CODE, align 1, keep-with-next
   \                     ??Subroutine19_0:
   \   000000   F0           MOVX    @DPTR,A
   \   000001   A3           INC     DPTR
   \   000002   E4           CLR     A
   \   000003   F0           MOVX    @DPTR,A
   \   000004   22           RET
    388          
    389          /*********************************************************************
    390           * @fn      SampleApp_ProcessEvent
    391           *
    392           * @brief   Generic Application Task event processor.  This function
    393           *          is called to process all events for the task.  Events
    394           *          include timers, messages and any other user defined events.
    395           *
    396           * @param   task_id  - The OSAL assigned task ID.
    397           * @param   events - events to process.  This is a bit map and can
    398           *                   contain more than one event.
    399           *
    400           * @return  none
    401           */
    402          //用户应用任务的事件处理函数

   \                                 In  segment BANKED_CODE, align 1, keep-with-next
    403          uint16 SampleApp_ProcessEvent( uint8 task_id, uint16 events )
   \                     SampleApp_ProcessEvent:
    404          {
   \   000000   74F4         MOV     A,#-0xc
   \   000002   12....       LCALL   ?BANKED_ENTER_XDATA
   \   000005                ; Saved register size: 12
   \   000005                ; Auto size: 0
   \   000005   EA           MOV     A,R2
   \   000006   FE           MOV     R6,A
   \   000007   EB           MOV     A,R3
   \   000008   FF           MOV     R7,A
    405            afIncomingMSGPacket_t *MSGpkt;
    406            (void)task_id;  // Intentionally unreferenced parameter
    407          
    408            if ( events & SYS_EVENT_MSG ) //接收系统消息再进行判断
   \   000009   5480         ANL     A,#0x80
   \   00000B   6078         JZ      ??SampleApp_ProcessEvent_0
    409            {
    410              //接收属于本应用任务SampleApp的消息，以SampleApp_TaskID标记
    411              MSGpkt = (afIncomingMSGPacket_t *)osal_msg_receive( SampleApp_TaskID );
   \   00000D                ; Setup parameters for call to function osal_msg_receive
   \   00000D   801D         SJMP    ??SampleApp_ProcessEvent_1
    412              while ( MSGpkt )
    413              {
    414                switch ( MSGpkt->hdr.event )
    415                {
    416                  // Received when a key is pressed
    417                  case KEY_CHANGE://按键事件
    418                    SampleApp_HandleKeys( ((keyChange_t *)MSGpkt)->state, ((keyChange_t *)MSGpkt)->keys );
    419                    break;
    420          
    421                  // Received when a messages is received (OTA) for this endpoint
    422                  case AF_INCOMING_MSG_CMD://接收数据事件,调用函数AF_DataRequest()接收数据
    423                    SampleApp_MessageMSGCB( MSGpkt );//调用回调函数对收到的数据进行处理
    424                    break;
    425          	  
    426          	case ZDO_CB_MSG:
    427          	  SApp_ProcessMsgCBs( (zdoIncomingMsg_t *)MSGpkt);
    428          	  break;
    429          
    430                  // Received whenever the device changes state in the network
    431                  case ZDO_STATE_CHANGE:
    432          	  
    433          	  
    434          	  
    435                    //只要网络状态发生改变，就通过ZDO_STATE_CHANGE事件通知所有的任务。
    436                    //同时完成对协调器，路由器，终端的设置
    437                    SampleApp_NwkState = (devStates_t)(MSGpkt->hdr.status);
   \                     ??SampleApp_ProcessEvent_2:
   \   00000F   A3           INC     DPTR
   \   000010   E0           MOVX    A,@DPTR
   \   000011   90....       MOV     DPTR,#SampleApp_NwkState
   \   000014   F0           MOVX    @DPTR,A
    438          	  
    439          	  
    440          	 /**********************************************\
    441          	  
    442                    if ( (SampleApp_NwkState == DEV_ZB_COORD)//实验中协调器只接收数据所以取消发送事件
    443                    if ( (SampleApp_NwkState == DEV_ROUTER) || (SampleApp_NwkState == DEV_END_DEVICE) )
    444                    //{
    445                      // Start sending the periodic message in a regular interval.
    446                      //这个定时器只是为发送周期信息开启的，设备启动初始化后从这里开始
    447                      //触发第一个周期信息的发送，然后周而复始下去
    448          	  
    449          	  \***************************************************/
    450          	  
    451          	  
    452                      osal_start_timerEx( SampleApp_TaskID,
    453                                        SAMPLEAPP_SEND_PERIODIC_MSG_EVT,
    454                                        SAMPLEAPP_SEND_PERIODIC_MSG_TIMEOUT );
   \   000015                ; Setup parameters for call to function osal_start_timerEx
   \   000015   7C10         MOV     R4,#0x10
   \   000017   7D27         MOV     R5,#0x27
   \   000019   7A01         MOV     R2,#0x1
   \   00001B   7B00         MOV     R3,#0x0
   \   00001D   90....       MOV     DPTR,#SampleApp_TaskID
   \   000020   E0           MOVX    A,@DPTR
   \   000021   F9           MOV     R1,A
   \   000022   12....       LCALL   ??osal_start_timerEx?relay
    455                    
    456          	    
    457          	    
    458          	   /**********************************************\
    459          	    
    460          	  }  
    461                    else
    462                    {
    463                      // Device is no longer in the network
    464                    }
    465          	    
    466          	    \***************************************************/
    467          	   
    468                    break;
    469          
    470                  default:
    471                    break;
    472                }
    473          
    474                // Release the memory 事件处理完了，释放消息占用的内存
    475                osal_msg_deallocate( (uint8 *)MSGpkt );
   \                     ??SampleApp_ProcessEvent_3:
   \   000025                ; Setup parameters for call to function osal_msg_deallocate
   \   000025   AA..         MOV     R2,?V0 + 0
   \   000027   AB..         MOV     R3,?V0 + 1
   \   000029   12....       LCALL   ??osal_msg_deallocate?relay
    476          
    477                // Next - if one is available 指针指向下一个放在缓冲区的待处理的事件，
    478                //返回while ( MSGpkt )重新处理事件，直到缓冲区没有等待处理事件为止
    479                MSGpkt = (afIncomingMSGPacket_t *)osal_msg_receive( SampleApp_TaskID );
   \   00002C                ; Setup parameters for call to function osal_msg_receive
   \                     ??SampleApp_ProcessEvent_1:
   \   00002C   90....       MOV     DPTR,#SampleApp_TaskID
   \   00002F   E0           MOVX    A,@DPTR
   \   000030   F9           MOV     R1,A
   \   000031   12....       LCALL   ??osal_msg_receive?relay
   \   000034   8A..         MOV     ?V0 + 0,R2
   \   000036   8B..         MOV     ?V0 + 1,R3
   \   000038   E5..         MOV     A,?V0 + 0
   \   00003A   45..         ORL     A,?V0 + 1
   \   00003C   603F         JZ      ??SampleApp_ProcessEvent_4
   \   00003E   85..82       MOV     DPL,?V0 + 0
   \   000041   85..83       MOV     DPH,?V0 + 1
   \   000044   E0           MOVX    A,@DPTR
   \   000045   24E6         ADD     A,#-0x1a
   \   000047   6022         JZ      ??SampleApp_ProcessEvent_5
   \   000049   245A         ADD     A,#0x5a
   \   00004B   600A         JZ      ??SampleApp_ProcessEvent_6
   \   00004D   24EF         ADD     A,#-0x11
   \   00004F   60BE         JZ      ??SampleApp_ProcessEvent_2
   \   000051   24FE         ADD     A,#-0x2
   \   000053   601F         JZ      ??SampleApp_ProcessEvent_7
   \   000055   80CE         SJMP    ??SampleApp_ProcessEvent_3
   \                     ??SampleApp_ProcessEvent_6:
   \   000057                ; Setup parameters for call to function SampleApp_HandleKeys
   \   000057   A3           INC     DPTR
   \   000058   A3           INC     DPTR
   \   000059   A3           INC     DPTR
   \   00005A   E0           MOVX    A,@DPTR
   \   00005B   FA           MOV     R2,A
   \   00005C   85..82       MOV     DPL,?V0 + 0
   \   00005F   85..83       MOV     DPH,?V0 + 1
   \   000062   A3           INC     DPTR
   \   000063   A3           INC     DPTR
   \   000064   E0           MOVX    A,@DPTR
   \   000065   F9           MOV     R1,A
   \   000066   12....       LCALL   ??SampleApp_HandleKeys?relay
   \   000069   80BA         SJMP    ??SampleApp_ProcessEvent_3
   \                     ??SampleApp_ProcessEvent_5:
   \   00006B                ; Setup parameters for call to function SampleApp_MessageMSGCB
   \   00006B   AA..         MOV     R2,?V0 + 0
   \   00006D   AB..         MOV     R3,?V0 + 1
   \   00006F   12....       LCALL   ??SampleApp_MessageMSGCB?relay
   \   000072   80B1         SJMP    ??SampleApp_ProcessEvent_3
   \                     ??SampleApp_ProcessEvent_7:
   \   000074                ; Setup parameters for call to function SApp_ProcessMsgCBs
   \   000074   AA..         MOV     R2,?V0 + 0
   \   000076   AB..         MOV     R3,?V0 + 1
   \   000078   12....       LCALL   ??SApp_ProcessMsgCBs?relay
   \   00007B   80A8         SJMP    ??SampleApp_ProcessEvent_3
    480              }
    481          
    482              // return unprocessed events 返回未处理的事件
    483              return (events ^ SYS_EVENT_MSG);
   \                     ??SampleApp_ProcessEvent_4:
   \   00007D   EE           MOV     A,R6
   \   00007E   FA           MOV     R2,A
   \   00007F   EF           MOV     A,R7
   \   000080   6480         XRL     A,#0x80
   \                     ??SampleApp_ProcessEvent_8:
   \   000082   FB           MOV     R3,A
   \   000083   802A         SJMP    ??SampleApp_ProcessEvent_9
    484            }
    485          
    486            // Send a message out - This event is generated by a timer
    487            //  (setup in SampleApp_Init()).
    488            if ( events & SAMPLEAPP_SEND_PERIODIC_MSG_EVT )
   \                     ??SampleApp_ProcessEvent_0:
   \   000085   EE           MOV     A,R6
   \   000086   A2E0         MOV     C,0xE0 /* A   */.0
   \   000088   5021         JNC     ??SampleApp_ProcessEvent_10
    489            {
    490              // Send the periodic message 处理周期性事件，
    491              //利用SampleApp_SendPeriodicMessage()处理完当前的周期性事件，然后启动定时器
    492              //开启下一个周期性事情，这样一种循环下去，也即是上面说的周期性事件了，
    493              //可以做为传感器定时采集、上传任务
    494              SampleApp_SendPeriodicMessage();
   \   00008A                ; Setup parameters for call to function SampleApp_SendPeriodicMessage
   \   00008A   12....       LCALL   ??SampleApp_SendPeriodicMessage?relay
    495          
    496              // Setup to send message again in normal period (+ a little jitter)
    497              osal_start_timerEx( SampleApp_TaskID, SAMPLEAPP_SEND_PERIODIC_MSG_EVT,
    498                  (SAMPLEAPP_SEND_PERIODIC_MSG_TIMEOUT + (osal_rand() & 0x00FF)) );
   \   00008D                ; Setup parameters for call to function osal_rand
   \   00008D   12....       LCALL   ??osal_rand?relay
   \   000090                ; Setup parameters for call to function osal_start_timerEx
   \   000090   EA           MOV     A,R2
   \   000091   2410         ADD     A,#0x10
   \   000093   FC           MOV     R4,A
   \   000094   E4           CLR     A
   \   000095   3427         ADDC    A,#0x27
   \   000097   FD           MOV     R5,A
   \   000098   7A01         MOV     R2,#0x1
   \   00009A   7B00         MOV     R3,#0x0
   \   00009C   90....       MOV     DPTR,#SampleApp_TaskID
   \   00009F   E0           MOVX    A,@DPTR
   \   0000A0   F9           MOV     R1,A
   \   0000A1   12....       LCALL   ??osal_start_timerEx?relay
    499          
    500              // return unprocessed events 返回未处理的事件
    501              return (events ^ SAMPLEAPP_SEND_PERIODIC_MSG_EVT);
   \   0000A4   EE           MOV     A,R6
   \   0000A5   6401         XRL     A,#0x1
   \   0000A7   FA           MOV     R2,A
   \   0000A8   EF           MOV     A,R7
   \   0000A9   80D7         SJMP    ??SampleApp_ProcessEvent_8
    502            }
    503          
    504            // Discard unknown events
    505            return 0;
   \                     ??SampleApp_ProcessEvent_10:
   \   0000AB   7A00         MOV     R2,#0x0
   \   0000AD   7B00         MOV     R3,#0x0
   \                     ??SampleApp_ProcessEvent_9:
   \   0000AF   7F04         MOV     R7,#0x4
   \   0000B1   02....       LJMP    ?BANKED_LEAVE_XDATA
    506          }
    507          
    508          
    509          /*********************************************************************
    510           * Event Generation Functions
    511           */
    512          /*********************************************************************
    513           * @fn      SampleApp_HandleKeys
    514           *
    515           * @brief   Handles all key events for this device.
    516           *
    517           * @param   shift - true if in shift/alt.
    518           * @param   keys - bit field for key events. Valid entries:
    519           *                 HAL_KEY_SW_2
    520           *                 HAL_KEY_SW_1
    521           *
    522           * @return  none
    523           */

   \                                 In  segment BANKED_CODE, align 1, keep-with-next
    524          void SampleApp_HandleKeys( uint8 shift, uint8 keys ) //此实验没有用到，后面再分析
   \                     SampleApp_HandleKeys:
    525          {
   \   000000   74F6         MOV     A,#-0xa
   \   000002   12....       LCALL   ?BANKED_ENTER_XDATA
   \   000005                ; Saved register size: 10
   \   000005                ; Auto size: 0
   \   000005   EA           MOV     A,R2
   \   000006   FE           MOV     R6,A
    526            (void)shift;  // Intentionally unreferenced parameter
    527            
    528            if ( keys & HAL_KEY_SW_1 )//key2
   \   000007   A2E0         MOV     C,0xE0 /* A   */.0
   \   000009   4003         JC      $+5
   \   00000B   02....       LJMP    ??SampleApp_HandleKeys_0 & 0xFFFF
    529            {
    530              
    531              		
    532          	//SampleApp_SendFlashMessage( SAMPLEAPP_FLASH_DURATION, 2);
    533          	  	
    534              	switch(sel_dev)
   \   00000E   90....       MOV     DPTR,#sel_dev
   \   000011   12....       LCALL   ?Subroutine7 & 0xFFFF
   \                     ??CrossCallReturnLabel_2:
   \   000014   12....       LCALL   ?US_SWITCH_DENSE
   \                     `?<Jumptable for SampleApp_HandleKeys>_0`:
   \   000017   0000         DW        0
   \   000019   09           DB        9
   \   00001A   ....         DW        ??SampleApp_HandleKeys_1
   \   00001C   ....         DW        ??SampleApp_HandleKeys_2
   \   00001E   ....         DW        ??SampleApp_HandleKeys_3
   \   000020   ....         DW        ??SampleApp_HandleKeys_4
   \   000022   ....         DW        ??SampleApp_HandleKeys_5
   \   000024   ....         DW        ??SampleApp_HandleKeys_6
   \   000026   ....         DW        ??SampleApp_HandleKeys_7
   \   000028   ....         DW        ??SampleApp_HandleKeys_8
   \   00002A   ....         DW        ??SampleApp_HandleKeys_9
   \   00002C   ....         DW        ??SampleApp_HandleKeys_10
   \   00002E   ....         DW        ??SampleApp_HandleKeys_11
    535          	{
    536          	case 0:
    537          	  sel_dev = 1;
   \                     ??SampleApp_HandleKeys_2:
   \   000030   90....       MOV     DPTR,#sel_dev
   \   000033   7401         MOV     A,#0x1
   \                     ??SampleApp_HandleKeys_12:
   \   000035   F0           MOVX    @DPTR,A
   \   000036   A3           INC     DPTR
   \   000037   E4           CLR     A
   \   000038   803E         SJMP    ??SampleApp_HandleKeys_13
    538          	  break;
    539          	case 1:
    540          	  sel_dev = 2;
   \                     ??SampleApp_HandleKeys_3:
   \   00003A   90....       MOV     DPTR,#sel_dev
   \   00003D   7402         MOV     A,#0x2
   \   00003F   80F4         SJMP    ??SampleApp_HandleKeys_12
    541          	  break;
    542          	case 2:
    543          	  sel_dev = 3;
   \                     ??SampleApp_HandleKeys_4:
   \   000041   90....       MOV     DPTR,#sel_dev
   \   000044   7403         MOV     A,#0x3
   \   000046   80ED         SJMP    ??SampleApp_HandleKeys_12
    544          	  break;
    545          	case 3:
    546          	  sel_dev = 4;
   \                     ??SampleApp_HandleKeys_5:
   \   000048   90....       MOV     DPTR,#sel_dev
   \   00004B   7404         MOV     A,#0x4
   \   00004D   80E6         SJMP    ??SampleApp_HandleKeys_12
    547          	  break;
    548          	case 4:
    549          	  sel_dev = 5;
   \                     ??SampleApp_HandleKeys_6:
   \   00004F   90....       MOV     DPTR,#sel_dev
   \   000052   7405         MOV     A,#0x5
   \   000054   80DF         SJMP    ??SampleApp_HandleKeys_12
    550          	  break;
    551          	case 5:
    552          	  sel_dev = 6;
   \                     ??SampleApp_HandleKeys_7:
   \   000056   90....       MOV     DPTR,#sel_dev
   \   000059   7406         MOV     A,#0x6
   \   00005B   80D8         SJMP    ??SampleApp_HandleKeys_12
    553          	  break;
    554          	case 6:
    555          	  sel_dev = 7;
   \                     ??SampleApp_HandleKeys_8:
   \   00005D   90....       MOV     DPTR,#sel_dev
   \   000060   7407         MOV     A,#0x7
   \   000062   80D1         SJMP    ??SampleApp_HandleKeys_12
    556          	  break;
    557          	case 7:
    558          	  sel_dev = 8;
   \                     ??SampleApp_HandleKeys_9:
   \   000064   90....       MOV     DPTR,#sel_dev
   \   000067   7408         MOV     A,#0x8
   \   000069   80CA         SJMP    ??SampleApp_HandleKeys_12
    559          	  break;
    560          	case 8:
    561          	  sel_dev = 9;
   \                     ??SampleApp_HandleKeys_10:
   \   00006B   90....       MOV     DPTR,#sel_dev
   \   00006E   7409         MOV     A,#0x9
   \   000070   80C3         SJMP    ??SampleApp_HandleKeys_12
    562          	  break;
    563          	case 9:
    564          	  sel_dev = 0;
   \                     ??SampleApp_HandleKeys_11:
   \   000072   90....       MOV     DPTR,#sel_dev
   \   000075   E4           CLR     A
   \   000076   F0           MOVX    @DPTR,A
   \   000077   A3           INC     DPTR
   \                     ??SampleApp_HandleKeys_13:
   \   000078   F0           MOVX    @DPTR,A
    565          	  break;
    566          	}
    567              HalLcdWriteStringValue("sel_dev:", sel_dev, 10, 6);
   \                     ??SampleApp_HandleKeys_1:
   \   000079                ; Setup parameters for call to function HalLcdWriteStringValue
   \   000079   75..06       MOV     ?V0 + 0,#0x6
   \   00007C   78..         MOV     R0,#?V0 + 0
   \   00007E   12....       LCALL   ?PUSH_XSTACK_I_ONE
   \   000081   790A         MOV     R1,#0xa
   \   000083   90....       MOV     DPTR,#sel_dev
   \   000086   12....       LCALL   ?Subroutine9 & 0xFFFF
   \                     ??CrossCallReturnLabel_6:
   \   000089   7A..         MOV     R2,#`?<Constant "sel_dev:">` & 0xff
   \   00008B   7B..         MOV     R3,#(`?<Constant "sel_dev:">` >> 8) & 0xff
   \   00008D   12....       LCALL   ?Subroutine12 & 0xFFFF
   \                     ??CrossCallReturnLabel_12:
   \   000090   12....       LCALL   ?DEALLOC_XSTACK8
    568              
    569              if(sel_dev < device_num)
   \   000093   90....       MOV     DPTR,#device_num
   \   000096   12....       LCALL   ??Subroutine16_0 & 0xFFFF
   \                     ??CrossCallReturnLabel_19:
   \   000099   7583..       MOV     DPH,#(sel_dev >> 8) & 0xff
   \   00009C   7582..       MOV     DPL,#sel_dev & 0xff
   \   00009F   C3           CLR     C
   \   0000A0   E0           MOVX    A,@DPTR
   \   0000A1   98           SUBB    A,R0
   \   0000A2   A3           INC     DPTR
   \   0000A3   E0           MOVX    A,@DPTR
   \   0000A4   99           SUBB    A,R1
   \   0000A5   A2D2         MOV     C,0xD0 /* PSW */.2
   \   0000A7   65D0         XRL     A,PSW
   \   0000A9   33           RLC     A
   \   0000AA   5011         JNC     ??SampleApp_HandleKeys_0
    570              {
    571                	dst_dev = device[sel_dev];
   \   0000AC   90....       MOV     DPTR,#sel_dev
   \   0000AF   12....       LCALL   ?Subroutine4 & 0xFFFF
    572              }
    573                 
    574              
    575              
    576              /* This key sends the Flash Command is sent to Group 1.
    577               * This device will not receive the Flash Command from this
    578               * device (even if it belongs to group 1).
    579               */
    580              
    581          	
    582              
    583            }
   \                     ??CrossCallReturnLabel_0:
   \   0000B2   12....       LCALL   ??Subroutine16_0 & 0xFFFF
   \                     ??CrossCallReturnLabel_20:
   \   0000B5   90....       MOV     DPTR,#dst_dev
   \   0000B8   E8           MOV     A,R0
   \   0000B9   F0           MOVX    @DPTR,A
   \   0000BA   A3           INC     DPTR
   \   0000BB   E9           MOV     A,R1
   \   0000BC   F0           MOVX    @DPTR,A
    584          
    585            if ( keys & HAL_KEY_SW_6 )//key1
   \                     ??SampleApp_HandleKeys_0:
   \   0000BD   EE           MOV     A,R6
   \   0000BE   A2E5         MOV     C,0xE0 /* A   */.5
   \   0000C0   506F         JNC     ??SampleApp_HandleKeys_14
    586            {
    587              
    588              
    589          //    	#if defined(ZDO_COORDINATOR) //协调器收到"D1"后,返回"D1"给终端，让终端Led1也闪烁
    590              
    591              
    592              	/**********************************************\
    593              		
    594              		if(key_flag == 0)
    595          		{
    596          		 InitT1();
    597          		 flag = 1;
    598          		}
    599          		else
    600          		{
    601          		  InitT11();
    602          		  flag = 0;
    603          		}
    604              \***************************************************/
    605          			
    606          //	#else
    607          		
    608          //		SampleApp_SendFlashMessage( SAMPLEAPP_FLASH_DURATION, 1);
    609          		if(main_flag == 0)
   \   0000C2   12....       LCALL   ?Subroutine10 & 0xFFFF
   \                     ??CrossCallReturnLabel_21:
   \   0000C5   E8           MOV     A,R0
   \   0000C6   49           ORL     A,R1
   \   0000C7   90....       MOV     DPTR,#main_flag
   \   0000CA   7007         JNZ     ??SampleApp_HandleKeys_15
    610          		{
    611          		  main_flag = 1;
   \   0000CC   7401         MOV     A,#0x1
   \   0000CE   F0           MOVX    @DPTR,A
   \   0000CF   A3           INC     DPTR
   \   0000D0   E4           CLR     A
   \   0000D1   8043         SJMP    ??SampleApp_HandleKeys_16
    612          		}
    613          		else if(main_flag == 1)
   \                     ??SampleApp_HandleKeys_15:
   \   0000D3   E0           MOVX    A,@DPTR
   \   0000D4   6401         XRL     A,#0x1
   \   0000D6   7002         JNZ     ??SampleApp_HandleKeys_17
   \   0000D8   A3           INC     DPTR
   \   0000D9   E0           MOVX    A,@DPTR
   \                     ??SampleApp_HandleKeys_17:
   \   0000DA   90....       MOV     DPTR,#main_flag
   \   0000DD   7014         JNZ     ??SampleApp_HandleKeys_18
    614          		{
    615          		  main_flag = 2;
   \   0000DF   7402         MOV     A,#0x2
   \   0000E1   12....       LCALL   ??Subroutine19_0 & 0xFFFF
    616          		  SampleApp_SendBeepMessage(sel_dev, 1);
   \                     ??CrossCallReturnLabel_36:
   \   0000E4                ; Setup parameters for call to function SampleApp_SendBeepMessage
   \   0000E4   7901         MOV     R1,#0x1
   \                     ??SampleApp_HandleKeys_19:
   \   0000E6   90....       MOV     DPTR,#sel_dev
   \   0000E9   E0           MOVX    A,@DPTR
   \   0000EA   FA           MOV     R2,A
   \   0000EB   A3           INC     DPTR
   \   0000EC   E0           MOVX    A,@DPTR
   \   0000ED   FB           MOV     R3,A
   \   0000EE   12....       LCALL   ??SampleApp_SendBeepMessage?relay
   \   0000F1   8024         SJMP    ??SampleApp_HandleKeys_20
    617          		}
    618          		else if(main_flag == 2)
   \                     ??SampleApp_HandleKeys_18:
   \   0000F3   E0           MOVX    A,@DPTR
   \   0000F4   6402         XRL     A,#0x2
   \   0000F6   7002         JNZ     ??SampleApp_HandleKeys_21
   \   0000F8   A3           INC     DPTR
   \   0000F9   E0           MOVX    A,@DPTR
   \                     ??SampleApp_HandleKeys_21:
   \   0000FA   90....       MOV     DPTR,#main_flag
   \   0000FD   7008         JNZ     ??SampleApp_HandleKeys_22
    619          		{
    620          		  main_flag = 3;
   \   0000FF   7403         MOV     A,#0x3
   \   000101   12....       LCALL   ??Subroutine19_0 & 0xFFFF
    621          		  SampleApp_SendBeepMessage(sel_dev, 0);
   \                     ??CrossCallReturnLabel_37:
   \   000104                ; Setup parameters for call to function SampleApp_SendBeepMessage
   \   000104   F9           MOV     R1,A
   \   000105   80DF         SJMP    ??SampleApp_HandleKeys_19
    622          		}
    623          		else if(main_flag == 3)
   \                     ??SampleApp_HandleKeys_22:
   \   000107   E0           MOVX    A,@DPTR
   \   000108   6403         XRL     A,#0x3
   \   00010A   7002         JNZ     ??SampleApp_HandleKeys_23
   \   00010C   A3           INC     DPTR
   \   00010D   E0           MOVX    A,@DPTR
   \                     ??SampleApp_HandleKeys_23:
   \   00010E   7007         JNZ     ??SampleApp_HandleKeys_20
    624          		{
    625          		  main_flag = 0;
   \   000110   90....       MOV     DPTR,#main_flag
   \   000113   E4           CLR     A
   \   000114   F0           MOVX    @DPTR,A
   \   000115   A3           INC     DPTR
   \                     ??SampleApp_HandleKeys_16:
   \   000116   F0           MOVX    @DPTR,A
    626          		}
    627          		
    628          		HalLcdWriteStringValue("model:", main_flag, 10, 5);
   \                     ??SampleApp_HandleKeys_20:
   \   000117                ; Setup parameters for call to function HalLcdWriteStringValue
   \   000117   75..05       MOV     ?V0 + 0,#0x5
   \   00011A   78..         MOV     R0,#?V0 + 0
   \   00011C   12....       LCALL   ?PUSH_XSTACK_I_ONE
   \   00011F   790A         MOV     R1,#0xa
   \   000121   90....       MOV     DPTR,#main_flag
   \   000124   12....       LCALL   ?Subroutine9 & 0xFFFF
    629          	  	
    630          //	#endif
    631              
    632              
    633              
    634              /* The Flashr Command is sent to Group 1.
    635               * This key toggles this device in and out of group 1.
    636               * If this device doesn't belong to group 1, this application
    637               * will not receive the Flash command sent to group 1.
    638               */
    639              
    640              
    641              /***************************************************************\
    642                
    643              aps_Group_t *grp;
    644              grp = aps_FindGroup( SAMPLEAPP_ENDPOINT, SAMPLEAPP_FLASH_GROUP );
    645              if ( grp )
    646              {
    647                // Remove from the group
    648                aps_RemoveGroup( SAMPLEAPP_ENDPOINT, SAMPLEAPP_FLASH_GROUP );
    649              }
    650              else
    651              {
    652                // Add to the flash group
    653                aps_AddGroup( SAMPLEAPP_ENDPOINT, &SampleApp_Group );
    654              }
    655              \****************************************************************/
    656              
    657            }
   \                     ??CrossCallReturnLabel_7:
   \   000127   7A..         MOV     R2,#`?<Constant "model:">` & 0xff
   \   000129   7B..         MOV     R3,#(`?<Constant "model:">` >> 8) & 0xff
   \   00012B   12....       LCALL   ?Subroutine12 & 0xFFFF
   \                     ??CrossCallReturnLabel_13:
   \   00012E   12....       LCALL   ?DEALLOC_XSTACK8
    658          }
   \                     ??SampleApp_HandleKeys_14:
   \   000131   02....       LJMP    ??Subroutine22_0 & 0xFFFF

   \                                 In  segment BANKED_CODE, align 1, keep-with-next
   \                     ?Subroutine12:
   \   000000   12....       LCALL   ??HalLcdWriteStringValue?relay
   \   000003   7401         MOV     A,#0x1
   \   000005   22           RET

   \                                 In  segment BANKED_CODE, align 1, keep-with-next
   \                     ?Subroutine10:
   \   000000   90....       MOV     DPTR,#main_flag
   \   000003                REQUIRE ??Subroutine16_0
   \   000003                ; // Fall through to label ??Subroutine16_0

   \                                 In  segment BANKED_CODE, align 1, keep-with-next
   \                     ??Subroutine16_0:
   \   000000   E0           MOVX    A,@DPTR
   \   000001   F8           MOV     R0,A
   \   000002   A3           INC     DPTR
   \   000003   E0           MOVX    A,@DPTR
   \   000004   F9           MOV     R1,A
   \   000005   22           RET

   \                                 In  segment BANKED_CODE, align 1, keep-with-next
   \                     ?Subroutine9:
   \   000000   E0           MOVX    A,@DPTR
   \   000001   FC           MOV     R4,A
   \   000002   A3           INC     DPTR
   \   000003   E0           MOVX    A,@DPTR
   \   000004   FD           MOV     R5,A
   \   000005   22           RET

   \                                 In  segment BANKED_CODE, align 1, keep-with-next
   \                     ?Subroutine7:
   \   000000   E0           MOVX    A,@DPTR
   \   000001   F5..         MOV     ?V0 + 0,A
   \   000003   A3           INC     DPTR
   \   000004   E0           MOVX    A,@DPTR
   \   000005   F5..         MOV     ?V0 + 1,A
   \   000007   78..         MOV     R0,#?V0 + 0
   \   000009   22           RET

   \                                 In  segment BANKED_CODE, align 1, keep-with-next
   \                     ?Subroutine4:
   \   000000   E0           MOVX    A,@DPTR
   \   000001   F8           MOV     R0,A
   \   000002   A3           INC     DPTR
   \   000003   E0           MOVX    A,@DPTR
   \   000004   F9           MOV     R1,A
   \   000005   E8           MOV     A,R0
   \   000006   C3           CLR     C
   \   000007   33           RLC     A
   \   000008   F8           MOV     R0,A
   \   000009   E9           MOV     A,R1
   \   00000A   33           RLC     A
   \   00000B   F9           MOV     R1,A
   \   00000C   74..         MOV     A,#device & 0xff
   \   00000E   28           ADD     A,R0
   \   00000F   F582         MOV     DPL,A
   \   000011   74..         MOV     A,#(device >> 8) & 0xff
   \   000013   39           ADDC    A,R1
   \   000014   F583         MOV     DPH,A
   \   000016   22           RET

   \                                 In  segment BANKED_CODE, align 1, keep-with-next
   \                     ??Subroutine22_0:
   \   000000   7F02         MOV     R7,#0x2
   \   000002   02....       LJMP    ?BANKED_LEAVE_XDATA
    659          
    660          /*********************************************************************
    661           * LOCAL FUNCTIONS
    662           */
    663          
    664          /*********************************************************************
    665           * @fn      SampleApp_MessageMSGCB
    666           *
    667           * @brief   Data message processor callback.  This function processes
    668           *          any incoming data - probably from other devices.  So, based
    669           *          on cluster ID, perform the intended action.
    670           *
    671           * @param   none
    672           *
    673           * @return  none
    674           */
    675          //接收数据，参数为接收到的数据

   \                                 In  segment BANKED_CODE, align 1, keep-with-next
    676          void SampleApp_MessageMSGCB( afIncomingMSGPacket_t *pkt )
   \                     SampleApp_MessageMSGCB:
    677          {
   \   000000   74F1         MOV     A,#-0xf
   \   000002   12....       LCALL   ?BANKED_ENTER_XDATA
   \   000005                ; Saved register size: 15
   \   000005                ; Auto size: 3
   \   000005   74FD         MOV     A,#-0x3
   \   000007   12....       LCALL   ?ALLOC_XSTACK8
   \   00000A   EA           MOV     A,R2
   \   00000B   FE           MOV     R6,A
   \   00000C   EB           MOV     A,R3
   \   00000D   FF           MOV     R7,A
    678            byte buf[3];
    679          //  HalLcdWriteStringValue("GROUP:", group, 10, 4);
    680          
    681            switch ( pkt->clusterId ) //判断簇ID
   \   00000E   8E82         MOV     DPL,R6
   \   000010   8F83         MOV     DPH,R7
   \   000012   A3           INC     DPTR
   \   000013   A3           INC     DPTR
   \   000014   A3           INC     DPTR
   \   000015   A3           INC     DPTR
   \   000016   12....       LCALL   ?Subroutine7 & 0xFFFF
   \                     ??CrossCallReturnLabel_3:
   \   000019   12....       LCALL   ?US_SWITCH_DENSE
   \                     `?<Jumptable for SampleApp_MessageMSGCB>_0`:
   \   00001C   0100         DW        1
   \   00001E   02           DB        2
   \   00001F   ....         DW        ??SampleApp_MessageMSGCB_0
   \   000021   ....         DW        ??SampleApp_MessageMSGCB_1
   \   000023   ....         DW        ??SampleApp_MessageMSGCB_0
   \   000025   ....         DW        ??SampleApp_MessageMSGCB_2
    682            {
    683              case SAMPLEAPP_PERIODIC_CLUSTERID: //收到广播数据
    684                osal_memset(buf, 0 , 3);
   \                     ??SampleApp_MessageMSGCB_1:
   \   000027                ; Setup parameters for call to function osal_memset
   \   000027   12....       LCALL   ?Subroutine5 & 0xFFFF
    685                osal_memcpy(buf, pkt->cmd.Data, 3); //复制数据到缓冲区中
   \                     ??CrossCallReturnLabel_28:
   \   00002A   12....       LCALL   ?PUSH_XSTACK_I_THREE
   \   00002D   7C03         MOV     R4,#0x3
   \   00002F   7D00         MOV     R5,#0x0
   \   000031   EC           MOV     A,R4
   \   000032   12....       LCALL   ?XSTACK_DISP0_8
   \   000035   12....       LCALL   ?Subroutine6 & 0xFFFF
   \                     ??CrossCallReturnLabel_23:
   \   000038   12....       LCALL   ?DEALLOC_XSTACK8
    686                
    687                if(buf[0]=='D' && buf[1]=='1')      //判断收到的数据是否为"D1"         
   \   00003B   85..82       MOV     DPL,?XSP + 0
   \   00003E   85..83       MOV     DPH,?XSP + 1
   \   000041   E0           MOVX    A,@DPTR
   \   000042   6444         XRL     A,#0x44
   \   000044   707A         JNZ     ??SampleApp_MessageMSGCB_3
   \   000046   7401         MOV     A,#0x1
   \   000048   12....       LCALL   ?XSTACK_DISP0_8
   \   00004B   E0           MOVX    A,@DPTR
   \   00004C   6431         XRL     A,#0x31
   \   00004E   6003         JZ      $+5
   \   000050   02....       LJMP    ??SampleApp_MessageMSGCB_4 & 0xFFFF
    688                {
    689          	
    690          //	if(group != buf[2])
    691          //	  break;
    692          	
    693          	
    694          	
    695          //	HalLcdWriteStringValue("src addr:", pkt->srcAddr.addr.shortAddr, 16, 4);
    696          	
    697          	
    698          	
    699          	if(main_flag == 0)                	//model 0
   \   000053   12....       LCALL   ?Subroutine10 & 0xFFFF
   \                     ??CrossCallReturnLabel_22:
   \   000056   E8           MOV     A,R0
   \   000057   49           ORL     A,R1
   \   000058   7009         JNZ     ??SampleApp_MessageMSGCB_5
    700          	{
    701          	  	beep0();
   \                     ??SampleApp_MessageMSGCB_6:
   \   00005A   75DB00       MOV     0xdb,#0x0
   \   00005D   75DA00       MOV     0xda,#0x0
    702          		
    703          	}
   \   000060   02....       LJMP    ??SampleApp_MessageMSGCB_0 & 0xFFFF
    704          	else if(main_flag == 1)
   \                     ??SampleApp_MessageMSGCB_5:
   \   000063   90....       MOV     DPTR,#main_flag
   \   000066   E0           MOVX    A,@DPTR
   \   000067   6401         XRL     A,#0x1
   \   000069   7002         JNZ     ??SampleApp_MessageMSGCB_7
   \   00006B   A3           INC     DPTR
   \   00006C   E0           MOVX    A,@DPTR
   \                     ??SampleApp_MessageMSGCB_7:
   \   00006D   6003         JZ      $+5
   \   00006F   02....       LJMP    ??SampleApp_MessageMSGCB_0 & 0xFFFF
    705          	{
    706          	  	
    707          	  	if(pkt->rssi < -75)
   \   000072   EE           MOV     A,R6
   \   000073   2418         ADD     A,#0x18
   \   000075   12....       LCALL   ?Subroutine14 & 0xFFFF
   \                     ??CrossCallReturnLabel_31:
   \   000078   C3           CLR     C
   \   000079   94B5         SUBB    A,#-0x4b
   \   00007B   A2D2         MOV     C,0xD0 /* PSW */.2
   \   00007D   65D0         XRL     A,PSW
   \   00007F   33           RLC     A
   \   000080   5027         JNC     ??SampleApp_MessageMSGCB_8
    708          		{
    709          		  if(count < 3)
   \   000082   90....       MOV     DPTR,#count
   \   000085   C3           CLR     C
   \   000086   E0           MOVX    A,@DPTR
   \   000087   9403         SUBB    A,#0x3
   \   000089   A3           INC     DPTR
   \   00008A   E0           MOVX    A,@DPTR
   \   00008B   9400         SUBB    A,#0x0
   \   00008D   A2D2         MOV     C,0xD0 /* PSW */.2
   \   00008F   65D0         XRL     A,PSW
   \   000091   33           RLC     A
   \   000092   5009         JNC     ??SampleApp_MessageMSGCB_9
    710          		    	count++;
   \   000094   90....       MOV     DPTR,#count
   \   000097   12....       LCALL   ?Subroutine11 & 0xFFFF
   \                     ??CrossCallReturnLabel_10:
   \   00009A   02....       LJMP    ??SampleApp_MessageMSGCB_10 & 0xFFFF
    711          		  else
    712          		  {
    713          		    	beep1();
   \                     ??SampleApp_MessageMSGCB_9:
   \   00009D   75DB00       MOV     0xdb,#0x0
   \   0000A0   75DAFF       MOV     0xda,#-0x1
    714          			count = 0;
   \   0000A3   90....       MOV     DPTR,#count
   \   0000A6   02....       LJMP    ??SampleApp_MessageMSGCB_11 & 0xFFFF
    715          		  }
    716          		}
    717          		else if(pkt->rssi > -55)
   \                     ??SampleApp_MessageMSGCB_8:
   \   0000A9   E0           MOVX    A,@DPTR
   \   0000AA   C3           CLR     C
   \   0000AB   94CA         SUBB    A,#-0x36
   \   0000AD   A2D2         MOV     C,0xD0 /* PSW */.2
   \   0000AF   65D0         XRL     A,PSW
   \   0000B1   33           RLC     A
   \   0000B2   90....       MOV     DPTR,#count
   \   0000B5   E4           CLR     A
   \   0000B6   F0           MOVX    @DPTR,A
   \   0000B7   A3           INC     DPTR
   \   0000B8   4003         JC      ??SampleApp_MessageMSGCB_12
    718          		{
    719          		  	count = 0;
   \   0000BA   F0           MOVX    @DPTR,A
    720          		  	beep0();
   \   0000BB   809D         SJMP    ??SampleApp_MessageMSGCB_6
    721          		}
    722          		else
    723          			count = 0;
   \                     ??SampleApp_MessageMSGCB_12:
   \   0000BD   02....       LJMP    ??SampleApp_MessageMSGCB_10 & 0xFFFF
    724          	}
    725          	else
    726          	{
    727          	  	
    728          	}
    729          	  
    730          	  
    731                }
    732                else if(buf[0] == 0x00)
   \                     ??SampleApp_MessageMSGCB_3:
   \   0000C0   E0           MOVX    A,@DPTR
   \   0000C1   7068         JNZ     ??SampleApp_MessageMSGCB_4
    733                {
    734          		osal_memcpy(device, pkt->cmd.Data, pkt->cmd.DataLength);
   \   0000C3   EE           MOV     A,R6
   \   0000C4   2420         ADD     A,#0x20
   \   0000C6   F8           MOV     R0,A
   \   0000C7   EF           MOV     A,R7
   \   0000C8   3400         ADDC    A,#0x0
   \   0000CA   F9           MOV     R1,A
   \   0000CB   88..         MOV     ?V0 + 0,R0
   \   0000CD   89..         MOV     ?V0 + 1,R1
   \   0000CF                ; Setup parameters for call to function osal_memcpy
   \   0000CF   EE           MOV     A,R6
   \   0000D0   2422         ADD     A,#0x22
   \   0000D2   12....       LCALL   ?Subroutine14 & 0xFFFF
   \                     ??CrossCallReturnLabel_32:
   \   0000D5   F5..         MOV     ?V0 + 4,A
   \   0000D7   A3           INC     DPTR
   \   0000D8   E0           MOVX    A,@DPTR
   \   0000D9   F5..         MOV     ?V0 + 5,A
   \   0000DB   75..00       MOV     ?V0 + 6,#0x0
   \   0000DE   78..         MOV     R0,#?V0 + 4
   \   0000E0   12....       LCALL   ?PUSH_XSTACK_I_THREE
   \   0000E3   85..82       MOV     DPL,?V0 + 0
   \   0000E6   8983         MOV     DPH,R1
   \   0000E8   12....       LCALL   ?Subroutine8 & 0xFFFF
   \                     ??CrossCallReturnLabel_4:
   \   0000EB   12....       LCALL   ??Subroutine17_0 & 0xFFFF
   \                     ??CrossCallReturnLabel_27:
   \   0000EE   12....       LCALL   ?DEALLOC_XSTACK8
    735          		period_count = 140;
   \   0000F1   90....       MOV     DPTR,#period_count
   \   0000F4   748C         MOV     A,#-0x74
   \   0000F6   12....       LCALL   ??Subroutine19_0 & 0xFFFF
    736          		device_num = pkt->cmd.DataLength/2;
   \                     ??CrossCallReturnLabel_38:
   \   0000F9   85..82       MOV     DPL,?V0 + 0
   \   0000FC   85..83       MOV     DPH,?V0 + 1
   \   0000FF   E0           MOVX    A,@DPTR
   \   000100   F8           MOV     R0,A
   \   000101   A3           INC     DPTR
   \   000102   E0           MOVX    A,@DPTR
   \   000103   C3           CLR     C
   \   000104   13           RRC     A
   \   000105   F9           MOV     R1,A
   \   000106   E8           MOV     A,R0
   \   000107   13           RRC     A
   \   000108   90....       MOV     DPTR,#device_num
   \   00010B   F0           MOVX    @DPTR,A
   \   00010C   A3           INC     DPTR
   \   00010D   E9           MOV     A,R1
   \   00010E   F0           MOVX    @DPTR,A
    737          		HalLcdWriteStringValue("dev_num:", device_num, 10, 4);
   \   00010F                ; Setup parameters for call to function HalLcdWriteStringValue
   \   00010F   75..04       MOV     ?V0 + 0,#0x4
   \   000112   78..         MOV     R0,#?V0 + 0
   \   000114   12....       LCALL   ?PUSH_XSTACK_I_ONE
   \   000117   790A         MOV     R1,#0xa
   \   000119   90....       MOV     DPTR,#device_num
   \   00011C   12....       LCALL   ?Subroutine9 & 0xFFFF
    738                }
   \                     ??CrossCallReturnLabel_8:
   \   00011F   7A..         MOV     R2,#`?<Constant "dev_num:">` & 0xff
   \   000121   7B..         MOV     R3,#(`?<Constant "dev_num:">` >> 8) & 0xff
   \   000123   12....       LCALL   ?Subroutine12 & 0xFFFF
   \                     ??CrossCallReturnLabel_14:
   \   000126   12....       LCALL   ?DEALLOC_XSTACK8
   \   000129   806B         SJMP    ??SampleApp_MessageMSGCB_0
    739                else
    740                {
    741                    	HalLedSet(HAL_LED_1, HAL_LED_MODE_ON);                   
   \                     ??SampleApp_MessageMSGCB_4:
   \   00012B                ; Setup parameters for call to function HalLedSet
   \   00012B   7A01         MOV     R2,#0x1
   \   00012D   7901         MOV     R1,#0x1
   \   00012F   12....       LCALL   ??HalLedSet?relay
   \   000132   8062         SJMP    ??SampleApp_MessageMSGCB_0
    742                }
    743                break;
    744          
    745              case SAMPLEAPP_FLASH_CLUSTERID: //收到组播数据
    746                
    747                
    748                if(pkt->cmd.Data[3] == 1)
    749                {
    750          	
    751                }
    752                else if(pkt->cmd.Data[3] == 3)
    753                {
    754          	
    755                }
    756                break;
    757                
    758              case SAMPLEAPP_SINGLE_CLUSTERID:
    759                HalLcdWriteStringValue("beep info:", pkt->srcAddr.addr.shortAddr, 16, 5);
   \                     ??SampleApp_MessageMSGCB_2:
   \   000134                ; Setup parameters for call to function HalLcdWriteStringValue
   \   000134   75..05       MOV     ?V0 + 0,#0x5
   \   000137   78..         MOV     R0,#?V0 + 0
   \   000139   12....       LCALL   ?PUSH_XSTACK_I_ONE
   \   00013C   7910         MOV     R1,#0x10
   \   00013E   8E82         MOV     DPL,R6
   \   000140   8F83         MOV     DPH,R7
   \   000142   A3           INC     DPTR
   \   000143   A3           INC     DPTR
   \   000144   A3           INC     DPTR
   \   000145   A3           INC     DPTR
   \   000146   A3           INC     DPTR
   \   000147   A3           INC     DPTR
   \   000148   12....       LCALL   ?Subroutine9 & 0xFFFF
   \                     ??CrossCallReturnLabel_9:
   \   00014B   7A..         MOV     R2,#`?<Constant "beep info:">` & 0xff
   \   00014D   7B..         MOV     R3,#(`?<Constant "beep info:">` >> 8) & 0xff
   \   00014F   12....       LCALL   ?Subroutine12 & 0xFFFF
   \                     ??CrossCallReturnLabel_15:
   \   000152   12....       LCALL   ?DEALLOC_XSTACK8
    760                osal_memset(buf, 0 , 3);
   \   000155                ; Setup parameters for call to function osal_memset
   \   000155   12....       LCALL   ?Subroutine5 & 0xFFFF
    761                osal_memcpy(buf, pkt->cmd.Data, 3); //复制数据到缓冲区中
   \                     ??CrossCallReturnLabel_29:
   \   000158   12....       LCALL   ?PUSH_XSTACK_I_THREE
   \   00015B   7C03         MOV     R4,#0x3
   \   00015D   7D00         MOV     R5,#0x0
   \   00015F   EC           MOV     A,R4
   \   000160   12....       LCALL   ?XSTACK_DISP0_8
   \   000163   12....       LCALL   ?Subroutine6 & 0xFFFF
   \                     ??CrossCallReturnLabel_24:
   \   000166   12....       LCALL   ?DEALLOC_XSTACK8
    762                
    763                if(buf[0]=='B' && buf[1]=='P') 
   \   000169   85..82       MOV     DPL,?XSP + 0
   \   00016C   85..83       MOV     DPH,?XSP + 1
   \   00016F   E0           MOVX    A,@DPTR
   \   000170   6442         XRL     A,#0x42
   \   000172   7022         JNZ     ??SampleApp_MessageMSGCB_0
   \   000174   7401         MOV     A,#0x1
   \   000176   12....       LCALL   ?XSTACK_DISP0_8
   \   000179   E0           MOVX    A,@DPTR
   \   00017A   6450         XRL     A,#0x50
   \   00017C   7018         JNZ     ??SampleApp_MessageMSGCB_0
    764                {
    765          	if(buf[2] == 1)
   \   00017E   7402         MOV     A,#0x2
   \   000180   12....       LCALL   ?XSTACK_DISP0_8
   \   000183   E0           MOVX    A,@DPTR
   \   000184   6401         XRL     A,#0x1
   \   000186   90....       MOV     DPTR,#beep_flag
   \   000189   7007         JNZ     ??SampleApp_MessageMSGCB_11
    766          	  beep_flag = 1;
   \   00018B   7401         MOV     A,#0x1
   \   00018D   F0           MOVX    @DPTR,A
   \   00018E   A3           INC     DPTR
   \   00018F   E4           CLR     A
   \   000190   8003         SJMP    ??SampleApp_MessageMSGCB_10
    767          	else
    768          	  beep_flag = 0;
   \                     ??SampleApp_MessageMSGCB_11:
   \   000192   E4           CLR     A
   \   000193   F0           MOVX    @DPTR,A
   \   000194   A3           INC     DPTR
   \                     ??SampleApp_MessageMSGCB_10:
   \   000195   F0           MOVX    @DPTR,A
    769                }
    770          	
    771            }
    772          }
   \                     ??SampleApp_MessageMSGCB_0:
   \   000196   7403         MOV     A,#0x3
   \   000198   12....       LCALL   ?DEALLOC_XSTACK8
   \   00019B   7F07         MOV     R7,#0x7
   \   00019D   02....       LJMP    ?BANKED_LEAVE_XDATA
   \   0001A0                REQUIRE T1CC0H
   \   0001A0                REQUIRE T1CC0L

   \                                 In  segment BANKED_CODE, align 1, keep-with-next
   \                     ?Subroutine6:
   \   000000   AA82         MOV     R2,DPL
   \   000002   AB83         MOV     R3,DPH
   \   000004                REQUIRE ??Subroutine17_0
   \   000004                ; // Fall through to label ??Subroutine17_0

   \                                 In  segment BANKED_CODE, align 1, keep-with-next
   \                     ?Subroutine5:
   \   000000   7C03         MOV     R4,#0x3
   \   000002   7D00         MOV     R5,#0x0
   \   000004   7900         MOV     R1,#0x0
   \   000006   85..82       MOV     DPL,?XSP + 0
   \   000009   85..83       MOV     DPH,?XSP + 1
   \   00000C   AA82         MOV     R2,DPL
   \   00000E   AB83         MOV     R3,DPH
   \   000010   12....       LCALL   ??osal_memset?relay
   \   000013                ; Setup parameters for call to function osal_memcpy
   \   000013                ; Setup parameters for call to function osal_memcpy
   \   000013   EE           MOV     A,R6
   \   000014   2422         ADD     A,#0x22
   \   000016                REQUIRE ??Subroutine18_0
   \   000016                ; // Fall through to label ??Subroutine18_0

   \                                 In  segment BANKED_CODE, align 1, keep-with-next
   \                     ??Subroutine18_0:
   \   000000   12....       LCALL   ?Subroutine14 & 0xFFFF
   \                     ??CrossCallReturnLabel_34:
   \   000003   F5..         MOV     ?V0 + 0,A
   \   000005   A3           INC     DPTR
   \   000006   E0           MOVX    A,@DPTR
   \   000007   F5..         MOV     ?V0 + 1,A
   \   000009   75..00       MOV     ?V0 + 2,#0x0
   \   00000C   78..         MOV     R0,#?V0 + 0
   \   00000E   22           RET

   \                                 In  segment BANKED_CODE, align 1, keep-with-next
   \                     ?Subroutine14:
   \   000000   F582         MOV     DPL,A
   \   000002   EF           MOV     A,R7
   \   000003   3400         ADDC    A,#0x0
   \   000005   F583         MOV     DPH,A
   \   000007   E0           MOVX    A,@DPTR
   \   000008   22           RET

   \                                 In  segment BANKED_CODE, align 1, keep-with-next
   \                     ?Subroutine11:
   \   000000   E0           MOVX    A,@DPTR
   \   000001   2401         ADD     A,#0x1
   \   000003   F0           MOVX    @DPTR,A
   \   000004   A3           INC     DPTR
   \   000005   E0           MOVX    A,@DPTR
   \   000006   3400         ADDC    A,#0x0
   \   000008   22           RET

   \                                 In  segment BANKED_CODE, align 1, keep-with-next
   \                     ?Subroutine8:
   \   000000   E0           MOVX    A,@DPTR
   \   000001   FC           MOV     R4,A
   \   000002   A3           INC     DPTR
   \   000003   E0           MOVX    A,@DPTR
   \   000004   FD           MOV     R5,A
   \   000005   7A..         MOV     R2,#device & 0xff
   \   000007   7B..         MOV     R3,#(device >> 8) & 0xff
   \   000009   22           RET
    773          
    774          
    775          //处理ZDO层传来的信息

   \                                 In  segment BANKED_CODE, align 1, keep-with-next
    776          void SApp_ProcessMsgCBs( zdoIncomingMsg_t *msgPtr )
   \                     SApp_ProcessMsgCBs:
    777          {
   \   000000   74F5         MOV     A,#-0xb
   \   000002   12....       LCALL   ?BANKED_ENTER_XDATA
   \   000005                ; Saved register size: 11
   \   000005                ; Auto size: 10
   \   000005   74F6         MOV     A,#-0xa
   \   000007   12....       LCALL   ?ALLOC_XSTACK8
   \   00000A   EA           MOV     A,R2
   \   00000B   FE           MOV     R6,A
   \   00000C   EB           MOV     A,R3
   \   00000D   FF           MOV     R7,A
    778            
    779            int i = 0;
    780            char flag = 0;
    781            uint16 nwk_addr;
    782            byte buf[10]; 
    783          //  HalLcdWriteStringValue("GROUP:", group, 10, 4);
    784          
    785            switch ( msgPtr->clusterID ) //判断簇ID
   \   00000E   EE           MOV     A,R6
   \   00000F   240C         ADD     A,#0xc
   \   000011   12....       LCALL   ?Subroutine14 & 0xFFFF
   \                     ??CrossCallReturnLabel_33:
   \   000014   6413         XRL     A,#0x13
   \   000016   7002         JNZ     ??SApp_ProcessMsgCBs_0
   \   000018   A3           INC     DPTR
   \   000019   E0           MOVX    A,@DPTR
   \                     ??SApp_ProcessMsgCBs_0:
   \   00001A   6003         JZ      $+5
   \   00001C   02....       LJMP    ??SApp_ProcessMsgCBs_1 & 0xFFFF
    786            {
    787              case Device_annce:
    788          
    789                	period_count = 139;
   \   00001F   90....       MOV     DPTR,#period_count
   \   000022   748B         MOV     A,#-0x75
   \   000024   12....       LCALL   ??Subroutine19_0 & 0xFFFF
    790                	
    791                
    792                  osal_memset(buf, 0 , 10);
   \                     ??CrossCallReturnLabel_39:
   \   000027                ; Setup parameters for call to function osal_memset
   \   000027   7C0A         MOV     R4,#0xa
   \   000029   FD           MOV     R5,A
   \   00002A   F9           MOV     R1,A
   \   00002B   85..82       MOV     DPL,?XSP + 0
   \   00002E   85..83       MOV     DPH,?XSP + 1
   \   000031   AA82         MOV     R2,DPL
   \   000033   AB83         MOV     R3,DPH
   \   000035   12....       LCALL   ??osal_memset?relay
    793                  osal_memcpy(buf, msgPtr->asdu, 10); //复制数据到缓冲区中
   \   000038                ; Setup parameters for call to function osal_memcpy
   \   000038   EE           MOV     A,R6
   \   000039   2413         ADD     A,#0x13
   \   00003B   12....       LCALL   ??Subroutine18_0 & 0xFFFF
   \                     ??CrossCallReturnLabel_30:
   \   00003E   12....       LCALL   ?PUSH_XSTACK_I_THREE
   \   000041   7C0A         MOV     R4,#0xa
   \   000043   7D00         MOV     R5,#0x0
   \   000045   7403         MOV     A,#0x3
   \   000047   12....       LCALL   ?XSTACK_DISP0_8
   \   00004A   12....       LCALL   ?Subroutine6 & 0xFFFF
   \                     ??CrossCallReturnLabel_25:
   \   00004D   12....       LCALL   ?DEALLOC_XSTACK8
    794          	nwk_addr = buf[1]*0x100 + buf[0];
   \   000050   7401         MOV     A,#0x1
   \   000052   12....       LCALL   ?XSTACK_DISP0_8
   \   000055   E0           MOVX    A,@DPTR
   \   000056   F9           MOV     R1,A
   \   000057   85..82       MOV     DPL,?XSP + 0
   \   00005A   85..83       MOV     DPH,?XSP + 1
   \   00005D   E0           MOVX    A,@DPTR
   \   00005E   FE           MOV     R6,A
   \   00005F   E9           MOV     A,R1
   \   000060   FF           MOV     R7,A
    795          	HalLcdWriteStringValue("DevAnnce:", nwk_addr, 16, 4);
   \   000061                ; Setup parameters for call to function HalLcdWriteStringValue
   \   000061   75..04       MOV     ?V0 + 0,#0x4
   \   000064   78..         MOV     R0,#?V0 + 0
   \   000066   12....       LCALL   ?PUSH_XSTACK_I_ONE
   \   000069   7910         MOV     R1,#0x10
   \   00006B   EE           MOV     A,R6
   \   00006C   FC           MOV     R4,A
   \   00006D   EF           MOV     A,R7
   \   00006E   FD           MOV     R5,A
   \   00006F   7A..         MOV     R2,#`?<Constant "DevAnnce:">` & 0xff
   \   000071   7B..         MOV     R3,#(`?<Constant "DevAnnce:">` >> 8) & 0xff
   \   000073   12....       LCALL   ?Subroutine12 & 0xFFFF
   \                     ??CrossCallReturnLabel_16:
   \   000076   12....       LCALL   ?DEALLOC_XSTACK8
    796          	
    797          	
    798          	
    799                	#if defined(ZDO_COORDINATOR)
    800          	{
    801          	  	for(i = 0; i < device_num; i++)
   \   000079   7800         MOV     R0,#0x0
   \   00007B   7900         MOV     R1,#0x0
   \   00007D   8026         SJMP    ??SApp_ProcessMsgCBs_2
    802          		{
    803          		 	if(device[i] == nwk_addr)
   \                     ??SApp_ProcessMsgCBs_3:
   \   00007F   E8           MOV     A,R0
   \   000080   FA           MOV     R2,A
   \   000081   E9           MOV     A,R1
   \   000082   FB           MOV     R3,A
   \   000083   EA           MOV     A,R2
   \   000084   C3           CLR     C
   \   000085   33           RLC     A
   \   000086   FA           MOV     R2,A
   \   000087   EB           MOV     A,R3
   \   000088   33           RLC     A
   \   000089   FB           MOV     R3,A
   \   00008A   74..         MOV     A,#device & 0xff
   \   00008C   2A           ADD     A,R2
   \   00008D   F582         MOV     DPL,A
   \   00008F   74..         MOV     A,#(device >> 8) & 0xff
   \   000091   3B           ADDC    A,R3
   \   000092   F583         MOV     DPH,A
   \   000094   E0           MOVX    A,@DPTR
   \   000095   6E           XRL     A,R6
   \   000096   7003         JNZ     ??SApp_ProcessMsgCBs_4
   \   000098   A3           INC     DPTR
   \   000099   E0           MOVX    A,@DPTR
   \   00009A   6F           XRL     A,R7
   \                     ??SApp_ProcessMsgCBs_4:
   \   00009B   6037         JZ      ??SApp_ProcessMsgCBs_1
    804          			{
    805          			  flag = 1;
    806          			  break;
    807          			}
    808          		}
   \   00009D   E8           MOV     A,R0
   \   00009E   2401         ADD     A,#0x1
   \   0000A0   08           INC     R0
   \   0000A1   E9           MOV     A,R1
   \   0000A2   3400         ADDC    A,#0x0
   \   0000A4   F9           MOV     R1,A
   \                     ??SApp_ProcessMsgCBs_2:
   \   0000A5   90....       MOV     DPTR,#device_num
   \   0000A8   E0           MOVX    A,@DPTR
   \   0000A9   FA           MOV     R2,A
   \   0000AA   A3           INC     DPTR
   \   0000AB   E0           MOVX    A,@DPTR
   \   0000AC   FB           MOV     R3,A
   \   0000AD   C3           CLR     C
   \   0000AE   E8           MOV     A,R0
   \   0000AF   9A           SUBB    A,R2
   \   0000B0   E9           MOV     A,R1
   \   0000B1   9B           SUBB    A,R3
   \   0000B2   A2D2         MOV     C,0xD0 /* PSW */.2
   \   0000B4   65D0         XRL     A,PSW
   \   0000B6   33           RLC     A
   \   0000B7   40C6         JC      ??SApp_ProcessMsgCBs_3
    809          		if(flag == 0)
    810          		{
    811          	  		device[++device_num] = nwk_addr;
   \   0000B9   90....       MOV     DPTR,#device_num
   \   0000BC   12....       LCALL   ?Subroutine11 & 0xFFFF
   \                     ??CrossCallReturnLabel_11:
   \   0000BF   F0           MOVX    @DPTR,A
   \   0000C0   90....       MOV     DPTR,#device_num
   \   0000C3   12....       LCALL   ?Subroutine4 & 0xFFFF
   \                     ??CrossCallReturnLabel_1:
   \   0000C6   EE           MOV     A,R6
   \   0000C7   F0           MOVX    @DPTR,A
   \   0000C8   A3           INC     DPTR
   \   0000C9   EF           MOV     A,R7
   \   0000CA   F0           MOVX    @DPTR,A
    812          			SampleApp_SendAddrMessage( (uint8 *)device, device_num );
   \   0000CB                ; Setup parameters for call to function SampleApp_SendAddrMessage
   \   0000CB   90....       MOV     DPTR,#device_num
   \   0000CE   12....       LCALL   ?Subroutine8 & 0xFFFF
    813          		}
    814          	}
    815          	#endif
    816                
    817                
    818          //      flashTime = BUILD_UINT16(pkt->cmd.Data[1], pkt->cmd.Data[2] );
    819          //      HalLedBlink( HAL_LED_4, 4, 50, (flashTime / 4) );
    820                  break;
    821                
    822                
    823            }
   \                     ??CrossCallReturnLabel_5:
   \   0000D1   12....       LCALL   ??SampleApp_SendAddrMessage?relay
    824              
    825            
    826          }
   \                     ??SApp_ProcessMsgCBs_1:
   \   0000D4   740A         MOV     A,#0xa
   \   0000D6   12....       LCALL   ?DEALLOC_XSTACK8
   \   0000D9   02....       LJMP    ?Subroutine1 & 0xFFFF
    827          
    828          
    829          

   \                                 In  segment BANKED_CODE, align 1, keep-with-next
    830          void SampleApp_SendBeepMessage(uint16 dst, uint8 s)
   \                     SampleApp_SendBeepMessage:
    831          {	
   \   000000   74F6         MOV     A,#-0xa
   \   000002   12....       LCALL   ?BANKED_ENTER_XDATA
   \   000005                ; Saved register size: 10
   \   000005                ; Auto size: 3
   \   000005   74FD         MOV     A,#-0x3
   \   000007   12....       LCALL   ?ALLOC_XSTACK8
    832          //#if defined(ZDO_COORDINATOR)
    833            SampleApp_Single_DstAddr.addr.shortAddr = dst;
   \   00000A   90....       MOV     DPTR,#SampleApp_Single_DstAddr
   \   00000D   EA           MOV     A,R2
   \   00000E   F0           MOVX    @DPTR,A
   \   00000F   A3           INC     DPTR
   \   000010   EB           MOV     A,R3
   \   000011   F0           MOVX    @DPTR,A
    834            byte SendData[3] = "BP";
   \   000012   85..82       MOV     DPL,?XSP + 0
   \   000015   85..83       MOV     DPH,?XSP + 1
   \   000018   AC82         MOV     R4,DPL
   \   00001A   AD83         MOV     R5,DPH
   \   00001C   7583..       MOV     DPH,#(`?<Constant "BP">` >> 8) & 0xff
   \   00001F   7582..       MOV     DPL,#`?<Constant "BP">` & 0xff
   \   000022   7403         MOV     A,#0x3
   \   000024   12....       LCALL   ?MOVE_LONG8_XDATA_XDATA
    835            SendData[2] = s;
   \   000027   7402         MOV     A,#0x2
   \   000029   12....       LCALL   ?XSTACK_DISP0_8
   \   00002C   E9           MOV     A,R1
   \   00002D   F0           MOVX    @DPTR,A
    836            // 调用AF_DataRequest将数据无线广播出去
    837            if( AF_DataRequest( &SampleApp_Single_DstAddr,   //发送目的地址＋端点地址和传送模式
    838                                 &SampleApp_epDesc,            //源(答复或确认)终端的描述（比如操作系统中任务ID等）源EP
    839                                 SAMPLEAPP_SINGLE_CLUSTERID, //被Profile指定的有效的集群号
    840                                 3,                // 发送数据长度
    841                                 SendData,                          // 发送数据缓冲区
    842                                 &SampleApp_TransID,           // 任务ID号
    843                                 AF_DISCV_ROUTE,               // 有效位掩码的发送选项
    844                                 AF_DEFAULT_RADIUS ) == afStatus_SUCCESS )  //传送跳数，通常设置为AF_DEFAULT_RADIUS
   \   00002E                ; Setup parameters for call to function AF_DataRequest
   \   00002E   75..1E       MOV     ?V0 + 0,#0x1e
   \   000031   78..         MOV     R0,#?V0 + 0
   \   000033   12....       LCALL   ?PUSH_XSTACK_I_ONE
   \   000036   75....       MOV     ?V0 + 0,#SampleApp_TransID & 0xff
   \   000039   75....       MOV     ?V0 + 1,#(SampleApp_TransID >> 8) & 0xff
   \   00003C   78..         MOV     R0,#?V0 + 0
   \   00003E   12....       LCALL   ?PUSH_XSTACK_I_TWO
   \   000041   7403         MOV     A,#0x3
   \   000043   12....       LCALL   ?XSTACK_DISP0_8
   \   000046   8582..       MOV     ?V0 + 0,DPL
   \   000049   8583..       MOV     ?V0 + 1,DPH
   \   00004C   78..         MOV     R0,#?V0 + 0
   \   00004E   12....       LCALL   ?PUSH_XSTACK_I_TWO
   \   000051   75..03       MOV     ?V0 + 0,#0x3
   \   000054   75..00       MOV     ?V0 + 1,#0x0
   \   000057   78..         MOV     R0,#?V0 + 0
   \   000059   12....       LCALL   ?PUSH_XSTACK_I_TWO
   \   00005C   78..         MOV     R0,#?V0 + 0
   \   00005E   12....       LCALL   ?PUSH_XSTACK_I_TWO
   \   000061   7920         MOV     R1,#0x20
   \   000063   7C..         MOV     R4,#SampleApp_epDesc & 0xff
   \   000065   7D..         MOV     R5,#(SampleApp_epDesc >> 8) & 0xff
   \   000067   7A..         MOV     R2,#SampleApp_Single_DstAddr & 0xff
   \   000069   7B..         MOV     R3,#(SampleApp_Single_DstAddr >> 8) & 0xff
   \   00006B   12....       LCALL   ??Subroutine20_0 & 0xFFFF
   \                     ??CrossCallReturnLabel_44:
   \   00006E   12....       LCALL   ?DEALLOC_XSTACK8
   \   000071   E9           MOV     A,R1
   \   000072   6007         JZ      ??SampleApp_SendBeepMessage_0
    845            {
    846            }
    847            else
    848            {
    849              HalLedSet(HAL_LED_1, HAL_LED_MODE_ON);
   \   000074                ; Setup parameters for call to function HalLedSet
   \   000074   7A01         MOV     R2,#0x1
   \   000076   7901         MOV     R1,#0x1
   \   000078   12....       LCALL   ??HalLedSet?relay
    850              // Error occurred in request to send.
    851            }
    852          //#else
    853            
    854          //#endif
    855          }
   \                     ??SampleApp_SendBeepMessage_0:
   \   00007B   02....       LJMP    ?Subroutine2 & 0xFFFF

   \                                 In  segment BANKED_CODE, align 1, keep-with-next
   \                     ??Subroutine20_0:
   \   000000   12....       LCALL   ??AF_DataRequest?relay
   \   000003   7409         MOV     A,#0x9
   \   000005   22           RET

   \                                 In  segment BANKED_CODE, align 1, keep-with-next
   \                     ?Subroutine2:
   \   000000   7403         MOV     A,#0x3
   \   000002                REQUIRE ??Subroutine21_0
   \   000002                ; // Fall through to label ??Subroutine21_0

   \                                 In  segment BANKED_CODE, align 1, keep-with-next
   \                     ??Subroutine21_0:
   \   000000   12....       LCALL   ?DEALLOC_XSTACK8
   \   000003                REQUIRE ??Subroutine22_0
   \   000003                ; // Fall through to label ??Subroutine22_0
    856          
    857          
    858          

   \                                 In  segment BANKED_CODE, align 1, keep-with-next
    859          void SampleApp_SendAddrMessage(uint8 dev[], int dev_num)
   \                     SampleApp_SendAddrMessage:
    860          {	
   \   000000   74F6         MOV     A,#-0xa
   \   000002   12....       LCALL   ?BANKED_ENTER_XDATA
   \   000005                ; Saved register size: 10
   \   000005                ; Auto size: 0
    861          //#if defined(ZDO_COORDINATOR)
    862            
    863            // 调用AF_DataRequest将数据无线广播出去
    864            if( AF_DataRequest( &SampleApp_Periodic_DstAddr,   //发送目的地址＋端点地址和传送模式
    865                                 &SampleApp_epDesc,            //源(答复或确认)终端的描述（比如操作系统中任务ID等）源EP
    866                                 SAMPLEAPP_PERIODIC_CLUSTERID, //被Profile指定的有效的集群号
    867                                 (dev_num+1)*2,                // 发送数据长度
    868                                 dev,                          // 发送数据缓冲区
    869                                 &SampleApp_TransID,           // 任务ID号
    870                                 AF_DISCV_ROUTE,               // 有效位掩码的发送选项
    871                                 AF_DEFAULT_RADIUS ) == afStatus_SUCCESS )  //传送跳数，通常设置为AF_DEFAULT_RADIUS
   \   000005                ; Setup parameters for call to function AF_DataRequest
   \   000005   75..1E       MOV     ?V0 + 0,#0x1e
   \   000008   78..         MOV     R0,#?V0 + 0
   \   00000A   12....       LCALL   ?PUSH_XSTACK_I_ONE
   \   00000D   75....       MOV     ?V0 + 0,#SampleApp_TransID & 0xff
   \   000010   75....       MOV     ?V0 + 1,#(SampleApp_TransID >> 8) & 0xff
   \   000013   78..         MOV     R0,#?V0 + 0
   \   000015   12....       LCALL   ?PUSH_XSTACK_I_TWO
   \   000018   8A..         MOV     ?V0 + 0,R2
   \   00001A   8B..         MOV     ?V0 + 1,R3
   \   00001C   78..         MOV     R0,#?V0 + 0
   \   00001E   12....       LCALL   ?PUSH_XSTACK_I_TWO
   \   000021   EC           MOV     A,R4
   \   000022   2401         ADD     A,#0x1
   \   000024   F5..         MOV     ?V0 + 0,A
   \   000026   ED           MOV     A,R5
   \   000027   3400         ADDC    A,#0x0
   \   000029   F5..         MOV     ?V0 + 1,A
   \   00002B   E5..         MOV     A,?V0 + 0
   \   00002D   C3           CLR     C
   \   00002E   33           RLC     A
   \   00002F   F5..         MOV     ?V0 + 0,A
   \   000031   E5..         MOV     A,?V0 + 1
   \   000033   33           RLC     A
   \   000034   F5..         MOV     ?V0 + 1,A
   \   000036   78..         MOV     R0,#?V0 + 0
   \   000038   12....       LCALL   ?PUSH_XSTACK_I_TWO
   \   00003B   75..01       MOV     ?V0 + 0,#0x1
   \   00003E   75..00       MOV     ?V0 + 1,#0x0
   \   000041   78..         MOV     R0,#?V0 + 0
   \   000043   12....       LCALL   ?PUSH_XSTACK_I_TWO
   \   000046   12....       LCALL   ?Subroutine13 & 0xFFFF
   \                     ??CrossCallReturnLabel_42:
   \   000049   12....       LCALL   ?DEALLOC_XSTACK8
   \   00004C   E9           MOV     A,R1
   \   00004D   6007         JZ      ??SampleApp_SendAddrMessage_0
    872            {
    873            }
    874            else
    875            {
    876              HalLedSet(HAL_LED_1, HAL_LED_MODE_ON);
   \   00004F                ; Setup parameters for call to function HalLedSet
   \   00004F   7A01         MOV     R2,#0x1
   \   000051   7901         MOV     R1,#0x1
   \   000053   12....       LCALL   ??HalLedSet?relay
    877              // Error occurred in request to send.
    878            }
    879          //#else
    880            
    881          //#endif
    882          }
   \                     ??SampleApp_SendAddrMessage_0:
   \   000056   02....       LJMP    ??Subroutine22_0 & 0xFFFF

   \                                 In  segment BANKED_CODE, align 1, keep-with-next
   \                     ?Subroutine13:
   \   000000   7920         MOV     R1,#0x20
   \   000002   7C..         MOV     R4,#SampleApp_epDesc & 0xff
   \   000004   7D..         MOV     R5,#(SampleApp_epDesc >> 8) & 0xff
   \   000006   7A..         MOV     R2,#SampleApp_Periodic_DstAddr & 0xff
   \   000008   7B..         MOV     R3,#(SampleApp_Periodic_DstAddr >> 8) & 0xff
   \   00000A                REQUIRE ??Subroutine20_0
   \   00000A                ; // Fall through to label ??Subroutine20_0
    883          
    884          
    885          
    886          /*********************************************************************
    887           * @fn      SampleApp_SendPeriodicMessage
    888           *
    889           * @brief   Send the periodic message.
    890           *
    891           * @param   none
    892           *
    893           * @return  none
    894           */
    895          //分析发送周期信息

   \                                 In  segment BANKED_CODE, align 1, keep-with-next
    896          void SampleApp_SendPeriodicMessage( void )
   \                     SampleApp_SendPeriodicMessage:
    897          {	
   \   000000   74F6         MOV     A,#-0xa
   \   000002   12....       LCALL   ?BANKED_ENTER_XDATA
   \   000005                ; Saved register size: 10
   \   000005                ; Auto size: 3
   \   000005   74FD         MOV     A,#-0x3
   \   000007   12....       LCALL   ?ALLOC_XSTACK8
    898          //#if defined(ZDO_COORDINATOR)
    899            
    900            byte SendData[3]="D1";
   \   00000A   85..82       MOV     DPL,?XSP + 0
   \   00000D   85..83       MOV     DPH,?XSP + 1
   \   000010   AC82         MOV     R4,DPL
   \   000012   AD83         MOV     R5,DPH
   \   000014   7583..       MOV     DPH,#(`?<Constant "D1">` >> 8) & 0xff
   \   000017   7582..       MOV     DPL,#`?<Constant "D1">` & 0xff
   \   00001A   7403         MOV     A,#0x3
   \   00001C   12....       LCALL   ?MOVE_LONG8_XDATA_XDATA
    901          
    902            // 调用AF_DataRequest将数据无线广播出去
    903            if( AF_DataRequest( &SampleApp_Periodic_DstAddr,//发送目的地址＋端点地址和传送模式
    904                                 &SampleApp_epDesc,//源(答复或确认)终端的描述（比如操作系统中任务ID等）源EP
    905                                 SAMPLEAPP_PERIODIC_CLUSTERID, //被Profile指定的有效的集群号
    906                                 3,       // 发送数据长度
    907                                 SendData,// 发送数据缓冲区
    908                                 &SampleApp_TransID,     // 任务ID号
    909                                 AF_DISCV_ROUTE,      // 有效位掩码的发送选项
    910                                 AF_DEFAULT_RADIUS ) == afStatus_SUCCESS )  //传送跳数，通常设置为AF_DEFAULT_RADIUS
   \   00001F                ; Setup parameters for call to function AF_DataRequest
   \   00001F   75..1E       MOV     ?V0 + 0,#0x1e
   \   000022   78..         MOV     R0,#?V0 + 0
   \   000024   12....       LCALL   ?PUSH_XSTACK_I_ONE
   \   000027   75....       MOV     ?V0 + 0,#SampleApp_TransID & 0xff
   \   00002A   75....       MOV     ?V0 + 1,#(SampleApp_TransID >> 8) & 0xff
   \   00002D   78..         MOV     R0,#?V0 + 0
   \   00002F   12....       LCALL   ?PUSH_XSTACK_I_TWO
   \   000032   7403         MOV     A,#0x3
   \   000034   12....       LCALL   ?XSTACK_DISP0_8
   \   000037   8582..       MOV     ?V0 + 0,DPL
   \   00003A   8583..       MOV     ?V0 + 1,DPH
   \   00003D   78..         MOV     R0,#?V0 + 0
   \   00003F   12....       LCALL   ?PUSH_XSTACK_I_TWO
   \   000042   75..03       MOV     ?V0 + 0,#0x3
   \   000045   75..00       MOV     ?V0 + 1,#0x0
   \   000048   78..         MOV     R0,#?V0 + 0
   \   00004A   12....       LCALL   ?PUSH_XSTACK_I_TWO
   \   00004D   75..01       MOV     ?V0 + 0,#0x1
   \   000050   78..         MOV     R0,#?V0 + 0
   \   000052   12....       LCALL   ?PUSH_XSTACK_I_TWO
   \   000055   12....       LCALL   ?Subroutine13 & 0xFFFF
   \                     ??CrossCallReturnLabel_43:
   \   000058   12....       LCALL   ?DEALLOC_XSTACK8
   \   00005B   E9           MOV     A,R1
   \   00005C   6007         JZ      ??SampleApp_SendPeriodicMessage_0
    911            {
    912            }
    913            else
    914            {
    915              HalLedSet(HAL_LED_1, HAL_LED_MODE_ON);
   \   00005E                ; Setup parameters for call to function HalLedSet
   \   00005E   7A01         MOV     R2,#0x1
   \   000060   7901         MOV     R1,#0x1
   \   000062   12....       LCALL   ??HalLedSet?relay
    916              // Error occurred in request to send.
    917            }
    918          //#else
    919            
    920          //#endif
    921          }
   \                     ??SampleApp_SendPeriodicMessage_0:
   \   000065   80..         SJMP    ?Subroutine2
    922          
    923          /*********************************************************************
    924           * @fn      SampleApp_SendFlashMessage
    925           *
    926           * @brief   Send the flash message to group 1.
    927           *
    928           * @param   flashTime - in milliseconds
    929           *
    930           * @return  none
    931           */

   \                                 In  segment BANKED_CODE, align 1, keep-with-next
    932          void SampleApp_SendFlashMessage( uint16 flashTime ,uint16 data) //此实验没有用到，后面再分析
   \                     SampleApp_SendFlashMessage:
    933          {
   \   000000   74F6         MOV     A,#-0xa
   \   000002   12....       LCALL   ?BANKED_ENTER_XDATA
   \   000005                ; Saved register size: 10
   \   000005                ; Auto size: 4
   \   000005   74FC         MOV     A,#-0x4
   \   000007   12....       LCALL   ?ALLOC_XSTACK8
    934            uint8 buffer[4];
    935            buffer[0] = (uint8)(SampleAppFlashCounter++);
   \   00000A   90....       MOV     DPTR,#SampleAppFlashCounter
   \   00000D   E0           MOVX    A,@DPTR
   \   00000E   85..82       MOV     DPL,?XSP + 0
   \   000011   85..83       MOV     DPH,?XSP + 1
   \   000014   F0           MOVX    @DPTR,A
   \   000015   90....       MOV     DPTR,#SampleAppFlashCounter
   \   000018   E0           MOVX    A,@DPTR
   \   000019   04           INC     A
   \   00001A   F0           MOVX    @DPTR,A
    936            buffer[1] = data;
   \   00001B   7401         MOV     A,#0x1
   \   00001D   12....       LCALL   ?XSTACK_DISP0_8
   \   000020   EC           MOV     A,R4
   \   000021   F0           MOVX    @DPTR,A
    937            buffer[2] = data;
   \   000022   7402         MOV     A,#0x2
   \   000024   12....       LCALL   ?XSTACK_DISP0_8
   \   000027   EC           MOV     A,R4
   \   000028   F0           MOVX    @DPTR,A
    938            buffer[3] = data;
   \   000029   7403         MOV     A,#0x3
   \   00002B   12....       LCALL   ?XSTACK_DISP0_8
   \   00002E   EC           MOV     A,R4
   \   00002F   F0           MOVX    @DPTR,A
    939          
    940            if ( AF_DataRequest( &SampleApp_Flash_DstAddr, &SampleApp_epDesc,
    941                                 SAMPLEAPP_FLASH_CLUSTERID,
    942                                 4,
    943                                 buffer,
    944                                 &SampleApp_TransID,
    945                                 AF_DISCV_ROUTE,
    946                                 AF_DEFAULT_RADIUS ) == afStatus_SUCCESS )
   \   000030                ; Setup parameters for call to function AF_DataRequest
   \   000030   75..1E       MOV     ?V0 + 0,#0x1e
   \   000033   78..         MOV     R0,#?V0 + 0
   \   000035   12....       LCALL   ?PUSH_XSTACK_I_ONE
   \   000038   75....       MOV     ?V0 + 0,#SampleApp_TransID & 0xff
   \   00003B   75....       MOV     ?V0 + 1,#(SampleApp_TransID >> 8) & 0xff
   \   00003E   78..         MOV     R0,#?V0 + 0
   \   000040   12....       LCALL   ?PUSH_XSTACK_I_TWO
   \   000043   7403         MOV     A,#0x3
   \   000045   12....       LCALL   ?XSTACK_DISP0_8
   \   000048   8582..       MOV     ?V0 + 0,DPL
   \   00004B   8583..       MOV     ?V0 + 1,DPH
   \   00004E   78..         MOV     R0,#?V0 + 0
   \   000050   12....       LCALL   ?PUSH_XSTACK_I_TWO
   \   000053   75..04       MOV     ?V0 + 0,#0x4
   \   000056   75..00       MOV     ?V0 + 1,#0x0
   \   000059   78..         MOV     R0,#?V0 + 0
   \   00005B   12....       LCALL   ?PUSH_XSTACK_I_TWO
   \   00005E   75..02       MOV     ?V0 + 0,#0x2
   \   000061   78..         MOV     R0,#?V0 + 0
   \   000063   12....       LCALL   ?PUSH_XSTACK_I_TWO
   \   000066   7920         MOV     R1,#0x20
   \   000068   7C..         MOV     R4,#SampleApp_epDesc & 0xff
   \   00006A   7D..         MOV     R5,#(SampleApp_epDesc >> 8) & 0xff
   \   00006C   7A..         MOV     R2,#SampleApp_Flash_DstAddr & 0xff
   \   00006E   7B..         MOV     R3,#(SampleApp_Flash_DstAddr >> 8) & 0xff
   \   000070   12....       LCALL   ??Subroutine20_0 & 0xFFFF
   \                     ??CrossCallReturnLabel_45:
   \   000073   12....       LCALL   ?DEALLOC_XSTACK8
    947            {
    948            }
    949            else
    950            {
    951              // Error occurred in request to send.
    952            }
    953          }
   \   000076   7404         MOV     A,#0x4
   \   000078   80..         SJMP    ??Subroutine21_0

   \                                 In  segment INTVEC, offset 0x5b, root
   \                     `??T3_ISR??INTVEC 91`:
   \   00005B   02....       LJMP       (T3_ISR)

   \                                 In  segment XDATA_ID, align 1, keep-with-next
   \                     `?<Initializer for AppTitle>`:
   \   000000   414C4432     DB "ALD2530 LED"
   \            35333020
   \            4C454400

   \                                 In  segment XDATA_ID, align 1, keep-with-next
   \                     `?<Initializer for main_flag>`:
   \   000000   0100         DW 1

   \                                 In  segment BANK_RELAYS, align 1
   \                     ??InitT1?relay:
   \   000000   12....       LCALL   ?BDISPATCH
   \   000003   ......       DC24    InitT1

   \                                 In  segment BANK_RELAYS, align 1
   \                     ??InitT3?relay:
   \   000000   12....       LCALL   ?BDISPATCH
   \   000003   ......       DC24    InitT3

   \                                 In  segment BANK_RELAYS, align 1
   \                     ??beep0?relay:
   \   000000   12....       LCALL   ?BDISPATCH
   \   000003   ......       DC24    beep0

   \                                 In  segment BANK_RELAYS, align 1
   \                     ??beep1?relay:
   \   000000   12....       LCALL   ?BDISPATCH
   \   000003   ......       DC24    beep1

   \                                 In  segment BANK_RELAYS, align 1
   \                     ??beep2?relay:
   \   000000   12....       LCALL   ?BDISPATCH
   \   000003   ......       DC24    beep2

   \                                 In  segment BANK_RELAYS, align 1
   \                     ??SampleApp_Init?relay:
   \   000000   12....       LCALL   ?BDISPATCH
   \   000003   ......       DC24    SampleApp_Init

   \                                 In  segment BANK_RELAYS, align 1
   \                     ??SampleApp_ProcessEvent?relay:
   \   000000   12....       LCALL   ?BDISPATCH
   \   000003   ......       DC24    SampleApp_ProcessEvent

   \                                 In  segment BANK_RELAYS, align 1
   \                     ??SampleApp_HandleKeys?relay:
   \   000000   12....       LCALL   ?BDISPATCH
   \   000003   ......       DC24    SampleApp_HandleKeys

   \                                 In  segment BANK_RELAYS, align 1
   \                     ??SampleApp_MessageMSGCB?relay:
   \   000000   12....       LCALL   ?BDISPATCH
   \   000003   ......       DC24    SampleApp_MessageMSGCB

   \                                 In  segment BANK_RELAYS, align 1
   \                     ??SApp_ProcessMsgCBs?relay:
   \   000000   12....       LCALL   ?BDISPATCH
   \   000003   ......       DC24    SApp_ProcessMsgCBs

   \                                 In  segment BANK_RELAYS, align 1
   \                     ??SampleApp_SendBeepMessage?relay:
   \   000000   12....       LCALL   ?BDISPATCH
   \   000003   ......       DC24    SampleApp_SendBeepMessage

   \                                 In  segment BANK_RELAYS, align 1
   \                     ??SampleApp_SendAddrMessage?relay:
   \   000000   12....       LCALL   ?BDISPATCH
   \   000003   ......       DC24    SampleApp_SendAddrMessage

   \                                 In  segment BANK_RELAYS, align 1
   \                     ??SampleApp_SendPeriodicMessage?relay:
   \   000000   12....       LCALL   ?BDISPATCH
   \   000003   ......       DC24    SampleApp_SendPeriodicMessage

   \                                 In  segment BANK_RELAYS, align 1
   \                     ??SampleApp_SendFlashMessage?relay:
   \   000000   12....       LCALL   ?BDISPATCH
   \   000003   ......       DC24    SampleApp_SendFlashMessage

   \                                 In  segment XDATA_ROM_C, align 1
   \                     `?<Constant "Group 1">`:
   \   000000   47726F75     DB "Group 1"
   \            70203100

   \                                 In  segment XDATA_ROM_C, align 1
   \                     `?<Constant "SampleApp">`:
   \   000000   53616D70     DB "SampleApp"
   \            6C654170
   \            7000    

   \                                 In  segment XDATA_ROM_C, align 1
   \                     `?<Constant "sel_dev:">`:
   \   000000   73656C5F     DB "sel_dev:"
   \            6465763A
   \            00      

   \                                 In  segment XDATA_ROM_C, align 1
   \                     `?<Constant "model:">`:
   \   000000   6D6F6465     DB "model:"
   \            6C3A00  

   \                                 In  segment XDATA_ROM_C, align 1
   \                     `?<Constant "dev_num:">`:
   \   000000   6465765F     DB "dev_num:"
   \            6E756D3A
   \            00      

   \                                 In  segment XDATA_ROM_C, align 1
   \                     `?<Constant "beep info:">`:
   \   000000   62656570     DB "beep info:"
   \            20696E66
   \            6F3A00  

   \                                 In  segment XDATA_ROM_C, align 1
   \                     `?<Constant "DevAnnce:">`:
   \   000000   44657641     DB "DevAnnce:"
   \            6E6E6365
   \            3A00    

   \                                 In  segment XDATA_ROM_C, align 1
   \                     `?<Constant "BP">`:
   \   000000   425000       DB "BP"

   \                                 In  segment XDATA_ROM_C, align 1
   \                     `?<Constant "D1">`:
   \   000000   443100       DB "D1"
    954          
    955          /*********************************************************************
    956          *********************************************************************/

   Maximum stack usage in bytes:

     Function                       ISTACK PSTACK XSTACK
     --------                       ------ ------ ------
     InitT1                             2      0     11
     InitT3                             0      0     11
     SApp_ProcessMsgCBs                 0      0     36
       -> osal_memset                   0      0     42
       -> osal_memcpy                   0      0     48
       -> HalLcdWriteStringValue        0      0     44
       -> SampleApp_SendAddrMessage     0      0     42
     SampleApp_HandleKeys               2      0     23
       -> HalLcdWriteStringValue        0      0     22
       -> SampleApp_SendBeepMessage     0      0     20
       -> SampleApp_SendBeepMessage     0      0     20
       -> HalLcdWriteStringValue        0      0     22
     SampleApp_Init                     0      0     14
       -> afRegister                    0      0     22
       -> RegisterForKeys               0      0     22
       -> osal_memcpy                   0      0     28
       -> aps_AddGroup                  0      0     22
       -> HalLcdWriteString             0      0     22
       -> ZDO_RegisterForZDOMsg         0      0     22
       -> InitT1                        0      0     22
       -> InitT3                        0      0     22
     SampleApp_MessageMSGCB             0      0     33
       -> osal_memset                   0      0     36
       -> osal_memcpy                   0      0     42
       -> osal_memcpy                   0      0     42
       -> HalLcdWriteStringValue        0      0     38
       -> HalLedSet                     0      0     36
       -> HalLcdWriteStringValue        0      0     38
       -> osal_memset                   0      0     36
       -> osal_memcpy                   0      0     42
     SampleApp_ProcessEvent             0      0     12
       -> osal_msg_receive              0      0     24
       -> osal_start_timerEx            0      0     24
       -> osal_msg_deallocate           0      0     24
       -> osal_msg_receive              0      0     24
       -> SampleApp_HandleKeys          0      0     24
       -> SampleApp_MessageMSGCB        0      0     24
       -> SApp_ProcessMsgCBs            0      0     24
       -> SampleApp_SendPeriodicMessage
                                        0      0     24
       -> osal_rand                     0      0     24
       -> osal_start_timerEx            0      0     24
     SampleApp_SendAddrMessage          0      0     40
       -> AF_DataRequest                0      0     38
       -> HalLedSet                     0      0     20
     SampleApp_SendBeepMessage          2      0     32
       -> AF_DataRequest                0      0     44
       -> HalLedSet                     0      0     26
     SampleApp_SendFlashMessage         1      0     23
       -> AF_DataRequest                0      0     46
     SampleApp_SendPeriodicMessage      2      0     34
       -> AF_DataRequest                0      0     44
       -> HalLedSet                     0      0     26
     T3_ISR                             8      0      0
     beep0                              0      0      0
     beep1                              0      0      0
     beep2                              0      0      0


   Segment part sizes:

     Function/Label                        Bytes
     --------------                        -----
     CLKCONSTA                                1
     _A_IEN0                                  1
     _A_IEN1                                  1
     _A_IRCON                                 1
     CLKCONCMD                                1
     T3CTL                                    1
     T1CC0L                                   1
     T1CC0H                                   1
     T1CTL                                    1
     PERCFG                                   1
     P0SEL                                    1
     P2SEL                                    1
     P0DIR                                    1
     P2DIR                                    1
     AppTitle                                12
     SampleApp_ClusterList                    6
     SampleApp_SimpleDesc                    12
     SampleApp_epDesc                         6
     SampleApp_TaskID                         1
     SampleApp_NwkState                       1
     SampleApp_TransID                        1
     SampleApp_Periodic_DstAddr              12
     SampleApp_Single_DstAddr                12
     SampleApp_Flash_DstAddr                 12
     SampleApp_Group                         18
     SampleAppPeriodicCounter                 1
     SampleAppFlashCounter                    1
     device                                  64
     sel_dev                                  2
     main_flag                                2
     beep_flag                                2
     time_flag                                2
     distance_flag                            2
     count                                    2
     period_count                             2
     device_num                               2
     dst_dev                                  2
     InitT1                                  65
     InitT3                                  19
     T3_ISR                                 165
     ?Subroutine15                           14
     beep0                                    9
     beep1                                    3
     ?Subroutine0                             6
     beep2                                    5
     SampleApp_Init                         187
     ?Subroutine1                             5
     ??Subroutine17_0                         6
     ?Subroutine3                             2
     ??Subroutine19_0                         5
     SampleApp_ProcessEvent                 180
     SampleApp_HandleKeys                   308
     ?Subroutine12                            6
     ?Subroutine10                            3
     ??Subroutine16_0                         6
     ?Subroutine9                             6
     ?Subroutine7                            10
     ?Subroutine4                            23
     ??Subroutine22_0                         5
     SampleApp_MessageMSGCB                 416
     ?Subroutine6                             4
     ?Subroutine5                            22
     ??Subroutine18_0                        15
     ?Subroutine14                            9
     ?Subroutine11                            9
     ?Subroutine8                            10
     SApp_ProcessMsgCBs                     220
     SampleApp_SendBeepMessage              126
     ??Subroutine20_0                         6
     ?Subroutine2                             2
     ??Subroutine21_0                         3
     SampleApp_SendAddrMessage               89
     ?Subroutine13                           10
     SampleApp_SendPeriodicMessage          103
     SampleApp_SendFlashMessage             122
     ??T3_ISR??INTVEC 91                      3
     ?<Initializer for AppTitle>             12
     ?<Initializer for main_flag>             2
     ??InitT1?relay                           6
     ??InitT3?relay                           6
     ??beep0?relay                            6
     ??beep1?relay                            6
     ??beep2?relay                            6
     ??SampleApp_Init?relay                   6
     ??SampleApp_ProcessEvent?relay           6
     ??SampleApp_HandleKeys?relay             6
     ??SampleApp_MessageMSGCB?relay           6
     ??SApp_ProcessMsgCBs?relay               6
     ??SampleApp_SendBeepMessage?relay        6
     ??SampleApp_SendAddrMessage?relay        6
     ??SampleApp_SendPeriodicMessage?relay    6
     ??SampleApp_SendFlashMessage?relay       6
     ?<Constant "Group 1">                    8
     ?<Constant "SampleApp">                 10
     ?<Constant "sel_dev:">                   9
     ?<Constant "model:">                     7
     ?<Constant "dev_num:">                   9
     ?<Constant "beep info:">                11
     ?<Constant "DevAnnce:">                 10
     ?<Constant "BP">                         3
     ?<Constant "D1">                         3

 
 2 025 bytes in segment BANKED_CODE
    84 bytes in segment BANK_RELAYS
     3 bytes in segment INTVEC
   179 bytes in segment NEAR_CODE
    14 bytes in segment SFR_AN
    14 bytes in segment XDATA_I
    14 bytes in segment XDATA_ID
    88 bytes in segment XDATA_ROM_C
   145 bytes in segment XDATA_Z
 
 2 302 bytes of CODE  memory (+  3 bytes shared)
    88 bytes of CONST memory
     0 bytes of DATA  memory (+ 14 bytes shared)
   159 bytes of XDATA memory

Errors: none
Warnings: none
